

Microchip MPLAB XC8 Assembler V2.20 build 20200408173844 
                                                                                               Tue Jun 30 18:26:23 2020

Microchip MPLAB XC8 C Compiler v2.20 (Free license) build 20200408173844 Og1 
     1                           	processor	16F877A
     2                           	pagewidth 120
     3                           	opt	flic
     4                           	psect	strings,global,class=STRING,delta=2,noexec
     5                           	psect	cinit,global,class=CODE,merge=1,delta=2
     6                           	psect	cstackCOMMON,global,class=COMMON,space=1,delta=1,noexec
     7                           	psect	cstackBANK0,global,class=BANK0,space=1,delta=1,noexec
     8                           	psect	maintext,global,class=CODE,split=1,delta=2
     9                           	psect	text1,local,class=CODE,merge=1,delta=2,group=1
    10                           	psect	text2,local,class=CODE,merge=1,delta=2,group=2
    11                           	psect	text3,local,class=CODE,merge=1,delta=2,group=2
    12                           	psect	text4,local,class=CODE,merge=1,delta=2,group=2
    13                           	psect	text5,local,class=CODE,merge=1,delta=2,group=2
    14                           	psect	text6,local,class=CODE,merge=1,delta=2,group=2
    15                           	psect	text7,local,class=CODE,merge=1,delta=2,group=2
    16                           	psect	text8,local,class=CODE,merge=1,delta=2
    17                           	psect	text9,local,class=CODE,merge=1,delta=2
    18                           	psect	text10,local,class=CODE,merge=1,delta=2
    19                           	psect	text11,local,class=CODE,merge=1,delta=2
    20                           	psect	text12,local,class=CODE,merge=1,delta=2
    21                           	psect	text13,local,class=CODE,merge=1,delta=2
    22                           	psect	text14,local,class=CODE,merge=1,delta=2
    23                           	psect	text15,local,class=CODE,merge=1,delta=2
    24                           	psect	text16,local,class=CODE,merge=1,delta=2
    25                           	psect	text17,local,class=CODE,merge=1,delta=2
    26                           	psect	text18,local,class=CODE,merge=1,delta=2
    27                           	psect	config,global,abs,ovrld,class=CONFIG,space=4,delta=2,noexec
    28                           	dabs	1,0x7E,2
    29  0000                     
    30                           ; Version 2.20
    31                           ; Generated 12/02/2020 GMT
    32                           ; 
    33                           ; Copyright © 2020, Microchip Technology Inc. and its subsidiaries ("Microchip")
    34                           ; All rights reserved.
    35                           ; 
    36                           ; This software is developed by Microchip Technology Inc. and its subsidiaries ("Microch
      +                          ip").
    37                           ; 
    38                           ; Redistribution and use in source and binary forms, with or without modification, are
    39                           ; permitted provided that the following conditions are met:
    40                           ; 
    41                           ;     1. Redistributions of source code must retain the above copyright notice, this lis
      +                          t of
    42                           ;        conditions and the following disclaimer.
    43                           ; 
    44                           ;     2. Redistributions in binary form must reproduce the above copyright notice, this 
      +                          list
    45                           ;        of conditions and the following disclaimer in the documentation and/or other
    46                           ;        materials provided with the distribution.
    47                           ; 
    48                           ;     3. Microchip's name may not be used to endorse or promote products derived from th
      +                          is
    49                           ;        software without specific prior written permission.
    50                           ; 
    51                           ; THIS SOFTWARE IS PROVIDED BY MICROCHIP "AS IS" AND ANY EXPRESS OR IMPLIED WARRANTIES,
    52                           ; INCLUDING, BUT NOT LIMITED TO, THE IMPLIED WARRANTIES OF MERCHANTABILITY AND FITNESS F
      +                          OR
    53                           ; PURPOSE ARE DISCLAIMED.  IN NO EVENT SHALL MICROCHIP BE LIABLE FOR ANY DIRECT, INDIREC
      +                          T,
    54                           ; INCIDENTAL, SPECIAL, EXEMPLARY, OR CONSEQUENTIAL DAMAGES (INCLUDING BUT NOT LIMITED TO
    55                           ; PROCUREMENT OF SUBSTITUTE GOODS OR SERVICES; LOSS OF USE, DATA OR PROFITS; OR BUSINESS
    56                           ; INTERRUPTION) HOWSOEVER CAUSED AND ON ANY THEORY OF LIABILITY, WHETHER IN CONTRACT, ST
      +                          RICT
    57                           ; LIABILITY, OR TORT (INCLUDING NEGLIGENCE OR OTHERWISE) ARISING IN ANY WAY OUT OF THE U
      +                          SE OF
    58                           ; THIS SOFTWARE, EVEN IF ADVISED OF THE POSSIBILITY OF SUCH DAMAGE.
    59                           ; 
    60                           ; 
    61                           ; Code-generator required, PIC16F877A Definitions
    62                           ; 
    63                           ; SFR Addresses
    64  0000                     	;# 
    65  0001                     	;# 
    66  0002                     	;# 
    67  0003                     	;# 
    68  0004                     	;# 
    69  0005                     	;# 
    70  0006                     	;# 
    71  0007                     	;# 
    72  0008                     	;# 
    73  0009                     	;# 
    74  000A                     	;# 
    75  000B                     	;# 
    76  000C                     	;# 
    77  000D                     	;# 
    78  000E                     	;# 
    79  000E                     	;# 
    80  000F                     	;# 
    81  0010                     	;# 
    82  0011                     	;# 
    83  0012                     	;# 
    84  0013                     	;# 
    85  0014                     	;# 
    86  0015                     	;# 
    87  0015                     	;# 
    88  0016                     	;# 
    89  0017                     	;# 
    90  0018                     	;# 
    91  0019                     	;# 
    92  001A                     	;# 
    93  001B                     	;# 
    94  001B                     	;# 
    95  001C                     	;# 
    96  001D                     	;# 
    97  001E                     	;# 
    98  001F                     	;# 
    99  0081                     	;# 
   100  0085                     	;# 
   101  0086                     	;# 
   102  0087                     	;# 
   103  0088                     	;# 
   104  0089                     	;# 
   105  008C                     	;# 
   106  008D                     	;# 
   107  008E                     	;# 
   108  0091                     	;# 
   109  0092                     	;# 
   110  0093                     	;# 
   111  0094                     	;# 
   112  0098                     	;# 
   113  0099                     	;# 
   114  009C                     	;# 
   115  009D                     	;# 
   116  009E                     	;# 
   117  009F                     	;# 
   118  010C                     	;# 
   119  010D                     	;# 
   120  010E                     	;# 
   121  010F                     	;# 
   122  018C                     	;# 
   123  018D                     	;# 
   124  0000                     	;# 
   125  0001                     	;# 
   126  0002                     	;# 
   127  0003                     	;# 
   128  0004                     	;# 
   129  0005                     	;# 
   130  0006                     	;# 
   131  0007                     	;# 
   132  0008                     	;# 
   133  0009                     	;# 
   134  000A                     	;# 
   135  000B                     	;# 
   136  000C                     	;# 
   137  000D                     	;# 
   138  000E                     	;# 
   139  000E                     	;# 
   140  000F                     	;# 
   141  0010                     	;# 
   142  0011                     	;# 
   143  0012                     	;# 
   144  0013                     	;# 
   145  0014                     	;# 
   146  0015                     	;# 
   147  0015                     	;# 
   148  0016                     	;# 
   149  0017                     	;# 
   150  0018                     	;# 
   151  0019                     	;# 
   152  001A                     	;# 
   153  001B                     	;# 
   154  001B                     	;# 
   155  001C                     	;# 
   156  001D                     	;# 
   157  001E                     	;# 
   158  001F                     	;# 
   159  0081                     	;# 
   160  0085                     	;# 
   161  0086                     	;# 
   162  0087                     	;# 
   163  0088                     	;# 
   164  0089                     	;# 
   165  008C                     	;# 
   166  008D                     	;# 
   167  008E                     	;# 
   168  0091                     	;# 
   169  0092                     	;# 
   170  0093                     	;# 
   171  0094                     	;# 
   172  0098                     	;# 
   173  0099                     	;# 
   174  009C                     	;# 
   175  009D                     	;# 
   176  009E                     	;# 
   177  009F                     	;# 
   178  010C                     	;# 
   179  010D                     	;# 
   180  010E                     	;# 
   181  010F                     	;# 
   182  018C                     	;# 
   183  018D                     	;# 
   184  0000                     	;# 
   185  0001                     	;# 
   186  0002                     	;# 
   187  0003                     	;# 
   188  0004                     	;# 
   189  0005                     	;# 
   190  0006                     	;# 
   191  0007                     	;# 
   192  0008                     	;# 
   193  0009                     	;# 
   194  000A                     	;# 
   195  000B                     	;# 
   196  000C                     	;# 
   197  000D                     	;# 
   198  000E                     	;# 
   199  000E                     	;# 
   200  000F                     	;# 
   201  0010                     	;# 
   202  0011                     	;# 
   203  0012                     	;# 
   204  0013                     	;# 
   205  0014                     	;# 
   206  0015                     	;# 
   207  0015                     	;# 
   208  0016                     	;# 
   209  0017                     	;# 
   210  0018                     	;# 
   211  0019                     	;# 
   212  001A                     	;# 
   213  001B                     	;# 
   214  001B                     	;# 
   215  001C                     	;# 
   216  001D                     	;# 
   217  001E                     	;# 
   218  001F                     	;# 
   219  0081                     	;# 
   220  0085                     	;# 
   221  0086                     	;# 
   222  0087                     	;# 
   223  0088                     	;# 
   224  0089                     	;# 
   225  008C                     	;# 
   226  008D                     	;# 
   227  008E                     	;# 
   228  0091                     	;# 
   229  0092                     	;# 
   230  0093                     	;# 
   231  0094                     	;# 
   232  0098                     	;# 
   233  0099                     	;# 
   234  009C                     	;# 
   235  009D                     	;# 
   236  009E                     	;# 
   237  009F                     	;# 
   238  010C                     	;# 
   239  010D                     	;# 
   240  010E                     	;# 
   241  010F                     	;# 
   242  018C                     	;# 
   243  018D                     	;# 
   244  0000                     	;# 
   245  0001                     	;# 
   246  0002                     	;# 
   247  0003                     	;# 
   248  0004                     	;# 
   249  0005                     	;# 
   250  0006                     	;# 
   251  0007                     	;# 
   252  0008                     	;# 
   253  0009                     	;# 
   254  000A                     	;# 
   255  000B                     	;# 
   256  000C                     	;# 
   257  000D                     	;# 
   258  000E                     	;# 
   259  000E                     	;# 
   260  000F                     	;# 
   261  0010                     	;# 
   262  0011                     	;# 
   263  0012                     	;# 
   264  0013                     	;# 
   265  0014                     	;# 
   266  0015                     	;# 
   267  0015                     	;# 
   268  0016                     	;# 
   269  0017                     	;# 
   270  0018                     	;# 
   271  0019                     	;# 
   272  001A                     	;# 
   273  001B                     	;# 
   274  001B                     	;# 
   275  001C                     	;# 
   276  001D                     	;# 
   277  001E                     	;# 
   278  001F                     	;# 
   279  0081                     	;# 
   280  0085                     	;# 
   281  0086                     	;# 
   282  0087                     	;# 
   283  0088                     	;# 
   284  0089                     	;# 
   285  008C                     	;# 
   286  008D                     	;# 
   287  008E                     	;# 
   288  0091                     	;# 
   289  0092                     	;# 
   290  0093                     	;# 
   291  0094                     	;# 
   292  0098                     	;# 
   293  0099                     	;# 
   294  009C                     	;# 
   295  009D                     	;# 
   296  009E                     	;# 
   297  009F                     	;# 
   298  010C                     	;# 
   299  010D                     	;# 
   300  010E                     	;# 
   301  010F                     	;# 
   302  018C                     	;# 
   303  018D                     	;# 
   304                           
   305                           	psect	strings
   306  0003                     __pstrings:
   307  0003                     stringtab:
   308  0003                     __stringtab:
   309  0003                     stringcode:	
   310                           ;	String table - string pointers are 1 byte each
   311                           
   312  0003                     stringdir:
   313  0003  3000               	movlw	high stringdir
   314  0004  008A               	movwf	10
   315  0005  0804               	movf	4,w
   316  0006  0A84               	incf	4,f
   317  0007  0782               	addwf	2,f
   318  0008                     __stringbase:
   319  0008  3400               	retlw	0
   320  0009                     __end_of__stringtab:
   321  0009                     _dpowers:
   322  0009  3401               	retlw	1
   323  000A  3400               	retlw	0
   324  000B  340A               	retlw	10
   325  000C  3400               	retlw	0
   326  000D  3464               	retlw	100
   327  000E  3400               	retlw	0
   328  000F  34E8               	retlw	232
   329  0010  3403               	retlw	3
   330  0011  3410               	retlw	16
   331  0012  3427               	retlw	39
   332  0013                     __end_of_dpowers:
   333  001E                     _ADRESH	set	30
   334  001F                     _ADCON0	set	31
   335  0007                     _PORTCbits	set	7
   336  00FA                     _GO_nDONE	set	250
   337  0049                     _RE1	set	73
   338  004A                     _RE2	set	74
   339  0047                     _RD7	set	71
   340  0046                     _RD6	set	70
   341  0045                     _RD5	set	69
   342  0044                     _RD4	set	68
   343  009E                     _ADRESL	set	158
   344  009F                     _ADCON1	set	159
   345  0089                     _TRISE	set	137
   346  0088                     _TRISD	set	136
   347  0087                     _TRISC	set	135
   348  0013                     STR_1:
   349  0013  344C               	retlw	76	;'L'
   350  0014  3476               	retlw	118	;'v'
   351  0015  3431               	retlw	49	;'1'
   352  0016  343A               	retlw	58	;':'
   353  0017  3420               	retlw	32	;' '
   354  0018  3425               	retlw	37	;'%'
   355  0019  3464               	retlw	100	;'d'
   356  001A  3425               	retlw	37	;'%'
   357  001B  3425               	retlw	37	;'%'
   358  001C  3400               	retlw	0
   359  001D                     STR_2:
   360  001D  344C               	retlw	76	;'L'
   361  001E  3476               	retlw	118	;'v'
   362  001F  3432               	retlw	50	;'2'
   363  0020  343A               	retlw	58	;':'
   364  0021  3420               	retlw	32	;' '
   365  0022  3425               	retlw	37	;'%'
   366  0023  3464               	retlw	100	;'d'
   367  0024  3425               	retlw	37	;'%'
   368  0025  3425               	retlw	37	;'%'
   369  0026  3400               	retlw	0
   370                           
   371                           	psect	cinit
   372  07FC                     start_initialization:	
   373                           ; #config settings
   374                           
   375  07FC                     __initialization:
   376  07FC                     end_of_initialization:	
   377                           ;End of C runtime variable initialization code
   378                           
   379  07FC                     __end_of__initialization:
   380  07FC  0183               	clrf	3
   381  07FD  120A  118A  2CA6   	ljmp	_main	;jump to C main() function
   382                           
   383                           	psect	cstackCOMMON
   384  0070                     __pcstackCOMMON:
   385  0070                     ?___flge:
   386  0070                     ?_ADC_Initialize:	
   387                           ; 1 bit 
   388                           
   389  0070                     ??_ADC_Initialize:	
   390                           ; 1 bytes @ 0x0
   391                           
   392  0070                     ?_Lcd_Start:	
   393                           ; 1 bytes @ 0x0
   394                           
   395  0070                     ?_Lcd_Print_String:	
   396                           ; 1 bytes @ 0x0
   397                           
   398  0070                     ?_PowerOnPump:	
   399                           ; 1 bytes @ 0x0
   400                           
   401  0070                     ??_PowerOnPump:	
   402                           ; 1 bytes @ 0x0
   403                           
   404  0070                     ?_PowerOffPump:	
   405                           ; 1 bytes @ 0x0
   406                           
   407  0070                     ??_PowerOffPump:	
   408                           ; 1 bytes @ 0x0
   409                           
   410  0070                     ?_main:	
   411                           ; 1 bytes @ 0x0
   412                           
   413  0070                     ?_Lcd_SetBit:	
   414                           ; 1 bytes @ 0x0
   415                           
   416  0070                     ??_Lcd_SetBit:	
   417                           ; 1 bytes @ 0x0
   418                           
   419  0070                     ?_Lcd_Cmd:	
   420                           ; 1 bytes @ 0x0
   421                           
   422  0070                     ?_Lcd_Print_Char:	
   423                           ; 1 bytes @ 0x0
   424                           
   425  0070                     ?_ADC_Read:	
   426                           ; 1 bytes @ 0x0
   427                           
   428  0070                     ?_Lcd_Clear:	
   429                           ; 2 bytes @ 0x0
   430                           
   431  0070                     ?___lwdiv:	
   432                           ; 2 bytes @ 0x0
   433                           
   434  0070                     ?___fltol:	
   435                           ; 2 bytes @ 0x0
   436                           
   437  0070                     ?___xxtofl:	
   438                           ; 4 bytes @ 0x0
   439                           
   440  0070                     Lcd_SetBit@data_bit:	
   441                           ; 4 bytes @ 0x0
   442                           
   443  0070                     ___lwdiv@divisor:	
   444                           ; 1 bytes @ 0x0
   445                           
   446  0070                     ___flge@ff1:	
   447                           ; 2 bytes @ 0x0
   448                           
   449  0070                     ___fltol@f1:	
   450                           ; 4 bytes @ 0x0
   451                           
   452  0070                     ___xxtofl@val:	
   453                           ; 4 bytes @ 0x0
   454                           
   455                           
   456                           ; 4 bytes @ 0x0
   457  0070                     	ds	1
   458  0071                     ??_Lcd_Cmd:
   459  0071                     ??_Lcd_Print_Char:	
   460                           ; 1 bytes @ 0x1
   461                           
   462                           
   463                           ; 1 bytes @ 0x1
   464  0071                     	ds	1
   465  0072                     ??_ADC_Read:
   466  0072                     Lcd_Print_Char@Lower_Nibble:	
   467                           ; 1 bytes @ 0x2
   468                           
   469  0072                     ___lwdiv@dividend:	
   470                           ; 1 bytes @ 0x2
   471                           
   472                           
   473                           ; 2 bytes @ 0x2
   474  0072                     	ds	1
   475  0073                     Lcd_Cmd@a:
   476  0073                     Lcd_Print_Char@Upper_Nibble:	
   477                           ; 1 bytes @ 0x3
   478                           
   479                           
   480                           ; 1 bytes @ 0x3
   481  0073                     	ds	1
   482  0074                     ??_Lcd_Start:
   483  0074                     ??_Lcd_Clear:	
   484                           ; 1 bytes @ 0x4
   485                           
   486  0074                     ?_Lcd_Set_Cursor:	
   487                           ; 1 bytes @ 0x4
   488                           
   489  0074                     ??___fltol:	
   490                           ; 1 bytes @ 0x4
   491                           
   492  0074                     ??___lwdiv:	
   493                           ; 1 bytes @ 0x4
   494                           
   495  0074                     ??___xxtofl:	
   496                           ; 1 bytes @ 0x4
   497                           
   498  0074                     Lcd_Set_Cursor@b:	
   499                           ; 1 bytes @ 0x4
   500                           
   501  0074                     Lcd_Print_Char@data:	
   502                           ; 1 bytes @ 0x4
   503                           
   504  0074                     ADC_Read@channel:	
   505                           ; 1 bytes @ 0x4
   506                           
   507  0074                     ___lwdiv@quotient:	
   508                           ; 1 bytes @ 0x4
   509                           
   510  0074                     ___flge@ff2:	
   511                           ; 2 bytes @ 0x4
   512                           
   513                           
   514                           ; 4 bytes @ 0x4
   515  0074                     	ds	1
   516  0075                     ??_Lcd_Set_Cursor:
   517  0075                     Lcd_Print_Char@i:	
   518                           ; 1 bytes @ 0x5
   519                           
   520                           
   521                           ; 2 bytes @ 0x5
   522  0075                     	ds	1
   523  0076                     Lcd_Set_Cursor@a:
   524  0076                     ___lwdiv@counter:	
   525                           ; 1 bytes @ 0x6
   526                           
   527                           
   528                           ; 1 bytes @ 0x6
   529  0076                     	ds	1
   530  0077                     ?___lwmod:
   531  0077                     Lcd_Set_Cursor@z:	
   532                           ; 2 bytes @ 0x7
   533                           
   534  0077                     Lcd_Print_Char@i_144:	
   535                           ; 1 bytes @ 0x7
   536                           
   537  0077                     ___lwmod@divisor:	
   538                           ; 2 bytes @ 0x7
   539                           
   540                           
   541                           ; 2 bytes @ 0x7
   542  0077                     	ds	1
   543  0078                     ??___flge:
   544  0078                     Lcd_Set_Cursor@y:	
   545                           ; 1 bytes @ 0x8
   546                           
   547  0078                     ___fltol@sign1:	
   548                           ; 1 bytes @ 0x8
   549                           
   550  0078                     ___xxtofl@sign:	
   551                           ; 1 bytes @ 0x8
   552                           
   553                           
   554                           ; 1 bytes @ 0x8
   555  0078                     	ds	1
   556  0079                     ??_Lcd_Print_String:
   557  0079                     Lcd_Set_Cursor@temp:	
   558                           ; 1 bytes @ 0x9
   559                           
   560  0079                     ___fltol@exp1:	
   561                           ; 1 bytes @ 0x9
   562                           
   563  0079                     ___xxtofl@exp:	
   564                           ; 1 bytes @ 0x9
   565                           
   566  0079                     ___lwmod@dividend:	
   567                           ; 1 bytes @ 0x9
   568                           
   569                           
   570                           ; 2 bytes @ 0x9
   571  0079                     	ds	1
   572  007A                     Lcd_Print_String@i:
   573  007A                     ___xxtofl@arg:	
   574                           ; 2 bytes @ 0xA
   575                           
   576                           
   577                           ; 4 bytes @ 0xA
   578  007A                     	ds	1
   579  007B                     ??___lwmod:
   580  007B                     ___lwmod@counter:	
   581                           ; 1 bytes @ 0xB
   582                           
   583                           
   584                           ; 1 bytes @ 0xB
   585  007B                     	ds	1
   586  007C                     Lcd_Print_String@a:
   587                           
   588                           ; 1 bytes @ 0xC
   589  007C                     	ds	2
   590                           
   591                           	psect	cstackBANK0
   592  0020                     __pcstackBANK0:
   593  0020                     ?_sprintf:
   594  0020                     ?___fldiv:	
   595                           ; 2 bytes @ 0x0
   596                           
   597  0020                     sprintf@f:	
   598                           ; 4 bytes @ 0x0
   599                           
   600  0020                     ___fldiv@a:	
   601                           ; 1 bytes @ 0x0
   602                           
   603                           
   604                           ; 4 bytes @ 0x0
   605  0020                     	ds	3
   606  0023                     ??_sprintf:
   607                           
   608                           ; 1 bytes @ 0x3
   609  0023                     	ds	1
   610  0024                     ___fldiv@b:
   611                           
   612                           ; 4 bytes @ 0x4
   613  0024                     	ds	2
   614  0026                     sprintf@ap:
   615                           
   616                           ; 1 bytes @ 0x6
   617  0026                     	ds	1
   618  0027                     sprintf@flag:
   619                           
   620                           ; 1 bytes @ 0x7
   621  0027                     	ds	1
   622  0028                     ??___fldiv:
   623  0028                     sprintf@prec:	
   624                           ; 1 bytes @ 0x8
   625                           
   626                           
   627                           ; 1 bytes @ 0x8
   628  0028                     	ds	1
   629  0029                     sprintf@val:
   630                           
   631                           ; 2 bytes @ 0x9
   632  0029                     	ds	2
   633  002B                     sprintf@sp:
   634                           
   635                           ; 1 bytes @ 0xB
   636  002B                     	ds	1
   637  002C                     sprintf@c:
   638                           
   639                           ; 1 bytes @ 0xC
   640  002C                     	ds	1
   641  002D                     ___fldiv@rem:
   642                           
   643                           ; 4 bytes @ 0xD
   644  002D                     	ds	4
   645  0031                     ___fldiv@sign:
   646                           
   647                           ; 1 bytes @ 0x11
   648  0031                     	ds	1
   649  0032                     ___fldiv@new_exp:
   650                           
   651                           ; 2 bytes @ 0x12
   652  0032                     	ds	2
   653  0034                     ___fldiv@grs:
   654                           
   655                           ; 4 bytes @ 0x14
   656  0034                     	ds	4
   657  0038                     ___fldiv@bexp:
   658                           
   659                           ; 1 bytes @ 0x18
   660  0038                     	ds	1
   661  0039                     ___fldiv@aexp:
   662                           
   663                           ; 1 bytes @ 0x19
   664  0039                     	ds	1
   665  003A                     ??_main:
   666                           
   667                           ; 1 bytes @ 0x1A
   668  003A                     	ds	3
   669  003D                     main@strLvTank1:
   670                           
   671                           ; 10 bytes @ 0x1D
   672  003D                     	ds	10
   673  0047                     main@strLvTank2:
   674                           
   675                           ; 10 bytes @ 0x27
   676  0047                     	ds	10
   677  0051                     main@adcTank1:
   678                           
   679                           ; 2 bytes @ 0x31
   680  0051                     	ds	2
   681  0053                     main@adcTank2:
   682                           
   683                           ; 2 bytes @ 0x33
   684  0053                     	ds	2
   685  0055                     main@isFull:
   686                           
   687                           ; 1 bytes @ 0x35
   688  0055                     	ds	1
   689  0056                     main@lvTank1:
   690                           
   691                           ; 4 bytes @ 0x36
   692  0056                     	ds	4
   693  005A                     main@lvTank2:
   694                           
   695                           ; 4 bytes @ 0x3A
   696  005A                     	ds	4
   697                           
   698                           	psect	maintext
   699  04A6                     __pmaintext:	
   700 ;;
   701 ;;Main: autosize = 0, tempsize = 3, incstack = 0, save=0
   702 ;;
   703 ;; *************** function _main *****************
   704 ;; Defined at:
   705 ;;		line 33 in file "main.c"
   706 ;; Parameters:    Size  Location     Type
   707 ;;		None
   708 ;; Auto vars:     Size  Location     Type
   709 ;;  strLvTank2     10   39[BANK0 ] unsigned char [10]
   710 ;;  strLvTank1     10   29[BANK0 ] unsigned char [10]
   711 ;;  lvTank2         4   58[BANK0 ] float 
   712 ;;  lvTank1         4   54[BANK0 ] float 
   713 ;;  adcTank2        2   51[BANK0 ] int 
   714 ;;  adcTank1        2   49[BANK0 ] int 
   715 ;;  isFull          1   53[BANK0 ] unsigned char 
   716 ;; Return value:  Size  Location     Type
   717 ;;                  1    wreg      void 
   718 ;; Registers used:
   719 ;;		wreg, fsr0l, fsr0h, status,2, status,0, btemp+1, pclath, cstack
   720 ;; Tracked objects:
   721 ;;		On entry : B00/0
   722 ;;		On exit  : 0/0
   723 ;;		Unchanged: 0/0
   724 ;; Data sizes:     COMMON   BANK0   BANK1   BANK3   BANK2
   725 ;;      Params:         0       0       0       0       0
   726 ;;      Locals:         0      33       0       0       0
   727 ;;      Temps:          0       3       0       0       0
   728 ;;      Totals:         0      36       0       0       0
   729 ;;Total ram usage:       36 bytes
   730 ;; Hardware stack levels required when called:    3
   731 ;; This function calls:
   732 ;;		_ADC_Initialize
   733 ;;		_ADC_Read
   734 ;;		_Lcd_Clear
   735 ;;		_Lcd_Print_String
   736 ;;		_Lcd_Set_Cursor
   737 ;;		_Lcd_Start
   738 ;;		_PowerOffPump
   739 ;;		_PowerOnPump
   740 ;;		___fldiv
   741 ;;		___flge
   742 ;;		___fltol
   743 ;;		___xxtofl
   744 ;;		_sprintf
   745 ;; This function is called by:
   746 ;;		Startup code after reset
   747 ;; This function uses a non-reentrant model
   748 ;;
   749                           
   750                           
   751                           ;psect for function _main
   752  04A6                     _main:
   753  04A6                     l1787:	
   754                           ;incstack = 0
   755                           ; Regs used in _main: [wreg-fsr0h+status,2+status,0+btemp+1+pclath+cstack]
   756                           
   757                           
   758                           ;main.c: 34: TRISC = 0x00;
   759  04A6  1683               	bsf	3,5	;RP0=1, select bank1
   760  04A7  1303               	bcf	3,6	;RP1=0, select bank1
   761  04A8  0187               	clrf	7	;volatile
   762                           
   763                           ;main.c: 35: TRISD = 0x00;
   764  04A9  0188               	clrf	8	;volatile
   765                           
   766                           ;main.c: 36: TRISE = 0x00;
   767  04AA  0189               	clrf	9	;volatile
   768  04AB                     l1789:
   769                           
   770                           ;main.c: 38: ADC_Initialize();
   771  04AB  120A  158A  27A7  120A  118A  	fcall	_ADC_Initialize
   772  04B0                     l1791:
   773                           
   774                           ;main.c: 39: Lcd_Start();
   775  04B0  120A  118A  213C  120A  118A  	fcall	_Lcd_Start
   776  04B5                     l1793:
   777                           
   778                           ;main.c: 42: {;main.c: 43: int adcTank1 = ADC_Read(0);
   779  04B5  3000               	movlw	0
   780  04B6  120A  118A  2041  120A  118A  	fcall	_ADC_Read
   781  04BB  0871               	movf	?_ADC_Read+1,w
   782  04BC  1283               	bcf	3,5	;RP0=0, select bank0
   783  04BD  1303               	bcf	3,6	;RP1=0, select bank0
   784  04BE  00D2               	movwf	main@adcTank1+1
   785  04BF  0870               	movf	?_ADC_Read,w
   786  04C0  00D1               	movwf	main@adcTank1
   787  04C1                     l1795:
   788                           
   789                           ;main.c: 44: int adcTank2 = ADC_Read(1);
   790  04C1  3001               	movlw	1
   791  04C2  120A  118A  2041  120A  118A  	fcall	_ADC_Read
   792  04C7  0871               	movf	?_ADC_Read+1,w
   793  04C8  1283               	bcf	3,5	;RP0=0, select bank0
   794  04C9  1303               	bcf	3,6	;RP1=0, select bank0
   795  04CA  00D4               	movwf	main@adcTank2+1
   796  04CB  0870               	movf	?_ADC_Read,w
   797  04CC  00D3               	movwf	main@adcTank2
   798  04CD                     l1797:
   799                           
   800                           ;main.c: 45: float lvTank1 = (adcTank1 / 10.23);
   801  04CD  3041               	movlw	65
   802  04CE  00A3               	movwf	___fldiv@a+3
   803  04CF  3023               	movlw	35
   804  04D0  00A2               	movwf	___fldiv@a+2
   805  04D1  30AE               	movlw	174
   806  04D2  00A1               	movwf	___fldiv@a+1
   807  04D3  3014               	movlw	20
   808  04D4  00A0               	movwf	___fldiv@a
   809  04D5  0851               	movf	main@adcTank1,w
   810  04D6  00F0               	movwf	___xxtofl@val
   811  04D7  0852               	movf	main@adcTank1+1,w
   812  04D8  00F1               	movwf	___xxtofl@val+1
   813  04D9  3000               	movlw	0
   814  04DA  1BF1               	btfsc	___xxtofl@val+1,7
   815  04DB  30FF               	movlw	255
   816  04DC  00F2               	movwf	___xxtofl@val+2
   817  04DD  00F3               	movwf	___xxtofl@val+3
   818  04DE  3001               	movlw	1
   819  04DF  120A  118A  230C  120A  118A  	fcall	___xxtofl
   820  04E4  0873               	movf	?___xxtofl+3,w
   821  04E5  1283               	bcf	3,5	;RP0=0, select bank0
   822  04E6  1303               	bcf	3,6	;RP1=0, select bank0
   823  04E7  00A7               	movwf	___fldiv@b+3
   824  04E8  0872               	movf	?___xxtofl+2,w
   825  04E9  00A6               	movwf	___fldiv@b+2
   826  04EA  0871               	movf	?___xxtofl+1,w
   827  04EB  00A5               	movwf	___fldiv@b+1
   828  04EC  0870               	movf	?___xxtofl,w
   829  04ED  00A4               	movwf	___fldiv@b
   830  04EE  120A  118A  261F  120A  118A  	fcall	___fldiv
   831  04F3  1283               	bcf	3,5	;RP0=0, select bank0
   832  04F4  1303               	bcf	3,6	;RP1=0, select bank0
   833  04F5  0823               	movf	?___fldiv+3,w
   834  04F6  00D9               	movwf	main@lvTank1+3
   835  04F7  0822               	movf	?___fldiv+2,w
   836  04F8  00D8               	movwf	main@lvTank1+2
   837  04F9  0821               	movf	?___fldiv+1,w
   838  04FA  00D7               	movwf	main@lvTank1+1
   839  04FB  0820               	movf	?___fldiv,w
   840  04FC  00D6               	movwf	main@lvTank1
   841  04FD                     l1799:
   842                           
   843                           ;main.c: 46: float lvTank2 = (adcTank2 / 10.23);
   844  04FD  3041               	movlw	65
   845  04FE  00A3               	movwf	___fldiv@a+3
   846  04FF  3023               	movlw	35
   847  0500  00A2               	movwf	___fldiv@a+2
   848  0501  30AE               	movlw	174
   849  0502  00A1               	movwf	___fldiv@a+1
   850  0503  3014               	movlw	20
   851  0504  00A0               	movwf	___fldiv@a
   852  0505  0853               	movf	main@adcTank2,w
   853  0506  00F0               	movwf	___xxtofl@val
   854  0507  0854               	movf	main@adcTank2+1,w
   855  0508  00F1               	movwf	___xxtofl@val+1
   856  0509  3000               	movlw	0
   857  050A  1BF1               	btfsc	___xxtofl@val+1,7
   858  050B  30FF               	movlw	255
   859  050C  00F2               	movwf	___xxtofl@val+2
   860  050D  00F3               	movwf	___xxtofl@val+3
   861  050E  3001               	movlw	1
   862  050F  120A  118A  230C  120A  118A  	fcall	___xxtofl
   863  0514  0873               	movf	?___xxtofl+3,w
   864  0515  1283               	bcf	3,5	;RP0=0, select bank0
   865  0516  1303               	bcf	3,6	;RP1=0, select bank0
   866  0517  00A7               	movwf	___fldiv@b+3
   867  0518  0872               	movf	?___xxtofl+2,w
   868  0519  00A6               	movwf	___fldiv@b+2
   869  051A  0871               	movf	?___xxtofl+1,w
   870  051B  00A5               	movwf	___fldiv@b+1
   871  051C  0870               	movf	?___xxtofl,w
   872  051D  00A4               	movwf	___fldiv@b
   873  051E  120A  118A  261F  120A  118A  	fcall	___fldiv
   874  0523  1283               	bcf	3,5	;RP0=0, select bank0
   875  0524  1303               	bcf	3,6	;RP1=0, select bank0
   876  0525  0823               	movf	?___fldiv+3,w
   877  0526  00DD               	movwf	main@lvTank2+3
   878  0527  0822               	movf	?___fldiv+2,w
   879  0528  00DC               	movwf	main@lvTank2+2
   880  0529  0821               	movf	?___fldiv+1,w
   881  052A  00DB               	movwf	main@lvTank2+1
   882  052B  0820               	movf	?___fldiv,w
   883  052C  00DA               	movwf	main@lvTank2
   884  052D                     l1801:
   885                           
   886                           ;main.c: 48: bool isFull = lvTank2 > 95 ? 1 : 0;
   887  052D  3042               	movlw	66
   888  052E  00F3               	movwf	___flge@ff1+3
   889  052F  30BE               	movlw	190
   890  0530  00F2               	movwf	___flge@ff1+2
   891  0531  3000               	movlw	0
   892  0532  00F1               	movwf	___flge@ff1+1
   893  0533  3000               	movlw	0
   894  0534  00F0               	movwf	___flge@ff1
   895  0535  085D               	movf	main@lvTank2+3,w
   896  0536  00F7               	movwf	___flge@ff2+3
   897  0537  085C               	movf	main@lvTank2+2,w
   898  0538  00F6               	movwf	___flge@ff2+2
   899  0539  085B               	movf	main@lvTank2+1,w
   900  053A  00F5               	movwf	___flge@ff2+1
   901  053B  085A               	movf	main@lvTank2,w
   902  053C  00F4               	movwf	___flge@ff2
   903  053D  120A  118A  226A  120A  118A  	fcall	___flge
   904  0542  1C03               	btfss	3,0
   905  0543  2D45               	goto	u1951
   906  0544  2D47               	goto	u1950
   907  0545                     u1951:
   908  0545  3001               	movlw	1
   909  0546  2D48               	goto	u1960
   910  0547                     u1950:
   911  0547  3000               	movlw	0
   912  0548                     u1960:
   913  0548  00FF               	movwf	btemp+1
   914  0549  087F               	movf	btemp+1,w
   915  054A  1283               	bcf	3,5	;RP0=0, select bank0
   916  054B  1303               	bcf	3,6	;RP1=0, select bank0
   917  054C  00D5               	movwf	main@isFull
   918  054D                     l1803:
   919                           
   920                           ;main.c: 49: if(lvTank1 > 20 && lvTank2 < 80)
   921  054D  3041               	movlw	65
   922  054E  00F3               	movwf	___flge@ff1+3
   923  054F  30A0               	movlw	160
   924  0550  00F2               	movwf	___flge@ff1+2
   925  0551  3000               	movlw	0
   926  0552  00F1               	movwf	___flge@ff1+1
   927  0553  3000               	movlw	0
   928  0554  00F0               	movwf	___flge@ff1
   929  0555  0859               	movf	main@lvTank1+3,w
   930  0556  00F7               	movwf	___flge@ff2+3
   931  0557  0858               	movf	main@lvTank1+2,w
   932  0558  00F6               	movwf	___flge@ff2+2
   933  0559  0857               	movf	main@lvTank1+1,w
   934  055A  00F5               	movwf	___flge@ff2+1
   935  055B  0856               	movf	main@lvTank1,w
   936  055C  00F4               	movwf	___flge@ff2
   937  055D  120A  118A  226A  120A  118A  	fcall	___flge
   938  0562  1803               	btfsc	3,0
   939  0563  2D65               	goto	u1971
   940  0564  2D66               	goto	u1970
   941  0565                     u1971:
   942  0565  2D87               	goto	l1809
   943  0566                     u1970:
   944  0566                     l1805:
   945  0566  1283               	bcf	3,5	;RP0=0, select bank0
   946  0567  1303               	bcf	3,6	;RP1=0, select bank0
   947  0568  085D               	movf	main@lvTank2+3,w
   948  0569  00F3               	movwf	___flge@ff1+3
   949  056A  085C               	movf	main@lvTank2+2,w
   950  056B  00F2               	movwf	___flge@ff1+2
   951  056C  085B               	movf	main@lvTank2+1,w
   952  056D  00F1               	movwf	___flge@ff1+1
   953  056E  085A               	movf	main@lvTank2,w
   954  056F  00F0               	movwf	___flge@ff1
   955  0570  3042               	movlw	66
   956  0571  00F7               	movwf	___flge@ff2+3
   957  0572  30A0               	movlw	160
   958  0573  00F6               	movwf	___flge@ff2+2
   959  0574  3000               	movlw	0
   960  0575  00F5               	movwf	___flge@ff2+1
   961  0576  3000               	movlw	0
   962  0577  00F4               	movwf	___flge@ff2
   963  0578  120A  118A  226A  120A  118A  	fcall	___flge
   964  057D  1803               	btfsc	3,0
   965  057E  2D80               	goto	u1981
   966  057F  2D81               	goto	u1980
   967  0580                     u1981:
   968  0580  2D87               	goto	l1809
   969  0581                     u1980:
   970  0581                     l1807:
   971                           
   972                           ;main.c: 50: PowerOnPump();
   973  0581  120A  158A  27A3  120A  118A  	fcall	_PowerOnPump
   974  0586  2DAE               	goto	l1815
   975  0587                     l1809:
   976                           
   977                           ;main.c: 51: else if (lvTank1 <= 20 || isFull)
   978  0587  3041               	movlw	65
   979  0588  00F3               	movwf	___flge@ff1+3
   980  0589  30A0               	movlw	160
   981  058A  00F2               	movwf	___flge@ff1+2
   982  058B  3000               	movlw	0
   983  058C  00F1               	movwf	___flge@ff1+1
   984  058D  3000               	movlw	0
   985  058E  00F0               	movwf	___flge@ff1
   986  058F  1283               	bcf	3,5	;RP0=0, select bank0
   987  0590  1303               	bcf	3,6	;RP1=0, select bank0
   988  0591  0859               	movf	main@lvTank1+3,w
   989  0592  00F7               	movwf	___flge@ff2+3
   990  0593  0858               	movf	main@lvTank1+2,w
   991  0594  00F6               	movwf	___flge@ff2+2
   992  0595  0857               	movf	main@lvTank1+1,w
   993  0596  00F5               	movwf	___flge@ff2+1
   994  0597  0856               	movf	main@lvTank1,w
   995  0598  00F4               	movwf	___flge@ff2
   996  0599  120A  118A  226A  120A  118A  	fcall	___flge
   997  059E  1803               	btfsc	3,0
   998  059F  2DA1               	goto	u1991
   999  05A0  2DA2               	goto	u1990
  1000  05A1                     u1991:
  1001  05A1  2DA9               	goto	l1813
  1002  05A2                     u1990:
  1003  05A2                     l1811:
  1004  05A2  1283               	bcf	3,5	;RP0=0, select bank0
  1005  05A3  1303               	bcf	3,6	;RP1=0, select bank0
  1006  05A4  0855               	movf	main@isFull,w
  1007  05A5  1903               	btfsc	3,2
  1008  05A6  2DA8               	goto	u2001
  1009  05A7  2DA9               	goto	u2000
  1010  05A8                     u2001:
  1011  05A8  2DAE               	goto	l1815
  1012  05A9                     u2000:
  1013  05A9                     l1813:
  1014                           
  1015                           ;main.c: 52: PowerOffPump();
  1016  05A9  120A  158A  279F  120A  118A  	fcall	_PowerOffPump
  1017  05AE                     l1815:
  1018                           
  1019                           ;main.c: 54: char strLvTank1 [10], strLvTank2 [10];;main.c: 55: sprintf(strLvTank1, "Lv1
      +                          : %d%%", (int)lvTank1);
  1020  05AE  300B               	movlw	(low ((STR_1-__stringbase)| (0+32768)))& (0+255)
  1021  05AF  00FF               	movwf	btemp+1
  1022  05B0  087F               	movf	btemp+1,w
  1023  05B1  1283               	bcf	3,5	;RP0=0, select bank0
  1024  05B2  1303               	bcf	3,6	;RP1=0, select bank0
  1025  05B3  00A0               	movwf	sprintf@f
  1026  05B4  0859               	movf	main@lvTank1+3,w
  1027  05B5  00F3               	movwf	___fltol@f1+3
  1028  05B6  0858               	movf	main@lvTank1+2,w
  1029  05B7  00F2               	movwf	___fltol@f1+2
  1030  05B8  0857               	movf	main@lvTank1+1,w
  1031  05B9  00F1               	movwf	___fltol@f1+1
  1032  05BA  0856               	movf	main@lvTank1,w
  1033  05BB  00F0               	movwf	___fltol@f1
  1034  05BC  120A  118A  21F0  120A  118A  	fcall	___fltol
  1035  05C1  0871               	movf	?___fltol+1,w
  1036  05C2  1283               	bcf	3,5	;RP0=0, select bank0
  1037  05C3  1303               	bcf	3,6	;RP1=0, select bank0
  1038  05C4  00A2               	movwf	?_sprintf+2
  1039  05C5  0870               	movf	?___fltol,w
  1040  05C6  00A1               	movwf	?_sprintf+1
  1041  05C7  303D               	movlw	(low (main@strLvTank1| 0))& (0+255)
  1042  05C8  120A  118A  23C6  120A  118A  	fcall	_sprintf
  1043  05CD                     l1817:
  1044                           
  1045                           ;main.c: 56: sprintf(strLvTank2, "Lv2: %d%%", (int)lvTank2);
  1046  05CD  3015               	movlw	(low ((STR_2-__stringbase)| (0+32768)))& (0+255)
  1047  05CE  00FF               	movwf	btemp+1
  1048  05CF  087F               	movf	btemp+1,w
  1049  05D0  1283               	bcf	3,5	;RP0=0, select bank0
  1050  05D1  1303               	bcf	3,6	;RP1=0, select bank0
  1051  05D2  00A0               	movwf	sprintf@f
  1052  05D3  085D               	movf	main@lvTank2+3,w
  1053  05D4  00F3               	movwf	___fltol@f1+3
  1054  05D5  085C               	movf	main@lvTank2+2,w
  1055  05D6  00F2               	movwf	___fltol@f1+2
  1056  05D7  085B               	movf	main@lvTank2+1,w
  1057  05D8  00F1               	movwf	___fltol@f1+1
  1058  05D9  085A               	movf	main@lvTank2,w
  1059  05DA  00F0               	movwf	___fltol@f1
  1060  05DB  120A  118A  21F0  120A  118A  	fcall	___fltol
  1061  05E0  0871               	movf	?___fltol+1,w
  1062  05E1  1283               	bcf	3,5	;RP0=0, select bank0
  1063  05E2  1303               	bcf	3,6	;RP1=0, select bank0
  1064  05E3  00A2               	movwf	?_sprintf+2
  1065  05E4  0870               	movf	?___fltol,w
  1066  05E5  00A1               	movwf	?_sprintf+1
  1067  05E6  3047               	movlw	(low (main@strLvTank2| 0))& (0+255)
  1068  05E7  120A  118A  23C6  120A  118A  	fcall	_sprintf
  1069  05EC                     l1819:
  1070                           
  1071                           ;main.c: 58: Lcd_Clear();
  1072  05EC  120A  158A  27B0  120A  118A  	fcall	_Lcd_Clear
  1073  05F1                     l1821:
  1074                           
  1075                           ;main.c: 59: Lcd_Set_Cursor(1,1);
  1076  05F1  01F4               	clrf	Lcd_Set_Cursor@b
  1077  05F2  0AF4               	incf	Lcd_Set_Cursor@b,f
  1078  05F3  3001               	movlw	1
  1079  05F4  120A  118A  20EA  120A  118A  	fcall	_Lcd_Set_Cursor
  1080  05F9                     l1823:
  1081                           
  1082                           ;main.c: 60: Lcd_Print_String(strLvTank1);
  1083  05F9  303D               	movlw	(low (main@strLvTank1| 0))& (0+255)
  1084  05FA  120A  158A  27BD  120A  118A  	fcall	_Lcd_Print_String
  1085  05FF                     l1825:
  1086                           
  1087                           ;main.c: 61: Lcd_Set_Cursor(2,1);
  1088  05FF  01F4               	clrf	Lcd_Set_Cursor@b
  1089  0600  0AF4               	incf	Lcd_Set_Cursor@b,f
  1090  0601  3002               	movlw	2
  1091  0602  120A  118A  20EA  120A  118A  	fcall	_Lcd_Set_Cursor
  1092  0607                     l1827:
  1093                           
  1094                           ;main.c: 62: Lcd_Print_String(strLvTank2);
  1095  0607  3047               	movlw	(low (main@strLvTank2| 0))& (0+255)
  1096  0608  120A  158A  27BD  120A  118A  	fcall	_Lcd_Print_String
  1097                           
  1098                           ;main.c: 63: _delay((unsigned long)((100)*(20000000/4000.0)));
  1099  060D  3003               	movlw	3
  1100  060E  1283               	bcf	3,5	;RP0=0, select bank0
  1101  060F  1303               	bcf	3,6	;RP1=0, select bank0
  1102  0610  00BC               	movwf	??_main+2
  1103  0611  308A               	movlw	138
  1104  0612  00BB               	movwf	??_main+1
  1105  0613  3055               	movlw	85
  1106  0614  00BA               	movwf	??_main
  1107  0615                     u2017:
  1108  0615  0BBA               	decfsz	??_main,f
  1109  0616  2E15               	goto	u2017
  1110  0617  0BBB               	decfsz	??_main+1,f
  1111  0618  2E15               	goto	u2017
  1112  0619  0BBC               	decfsz	??_main+2,f
  1113  061A  2E15               	goto	u2017
  1114  061B  2CB5               	goto	l1793
  1115  061C  120A  118A  2800   	ljmp	start
  1116  061F                     __end_of_main:
  1117                           
  1118                           	psect	text1
  1119  03C6                     __ptext1:	
  1120 ;; *************** function _sprintf *****************
  1121 ;; Defined at:
  1122 ;;		line 505 in file "/opt/microchip/xc8/v2.20/pic/sources/c90/common/doprnt.c"
  1123 ;; Parameters:    Size  Location     Type
  1124 ;;  sp              1    wreg     PTR unsigned char 
  1125 ;;		 -> main@strLvTank2(10), main@strLvTank1(10), 
  1126 ;;  f               1    0[BANK0 ] PTR const unsigned char 
  1127 ;;		 -> STR_2(10), STR_1(10), 
  1128 ;; Auto vars:     Size  Location     Type
  1129 ;;  sp              1   11[BANK0 ] PTR unsigned char 
  1130 ;;		 -> main@strLvTank2(10), main@strLvTank1(10), 
  1131 ;;  tmpval          4    0        struct .
  1132 ;;  val             2    9[BANK0 ] unsigned int 
  1133 ;;  cp              2    0        PTR const unsigned char 
  1134 ;;  len             2    0        unsigned int 
  1135 ;;  c               1   12[BANK0 ] unsigned char 
  1136 ;;  prec            1    8[BANK0 ] char 
  1137 ;;  flag            1    7[BANK0 ] unsigned char 
  1138 ;;  ap              1    6[BANK0 ] PTR void [1]
  1139 ;;		 -> ?_sprintf(2), 
  1140 ;; Return value:  Size  Location     Type
  1141 ;;                  2    0[BANK0 ] int 
  1142 ;; Registers used:
  1143 ;;		wreg, fsr0l, fsr0h, status,2, status,0, btemp+1, pclath, cstack
  1144 ;; Tracked objects:
  1145 ;;		On entry : 0/0
  1146 ;;		On exit  : 0/0
  1147 ;;		Unchanged: 0/0
  1148 ;; Data sizes:     COMMON   BANK0   BANK1   BANK3   BANK2
  1149 ;;      Params:         0       3       0       0       0
  1150 ;;      Locals:         0       7       0       0       0
  1151 ;;      Temps:          0       3       0       0       0
  1152 ;;      Totals:         0      13       0       0       0
  1153 ;;Total ram usage:       13 bytes
  1154 ;; Hardware stack levels used:    1
  1155 ;; Hardware stack levels required when called:    1
  1156 ;; This function calls:
  1157 ;;		___lwdiv
  1158 ;;		___lwmod
  1159 ;; This function is called by:
  1160 ;;		_main
  1161 ;; This function uses a non-reentrant model
  1162 ;;
  1163                           
  1164                           
  1165                           ;psect for function _sprintf
  1166  03C6                     _sprintf:
  1167                           
  1168                           ;incstack = 0
  1169                           ; Regs used in _sprintf: [wreg-fsr0h+status,2+status,0+btemp+1+pclath+cstack]
  1170                           ;sprintf@sp stored from wreg
  1171  03C6  1283               	bcf	3,5	;RP0=0, select bank0
  1172  03C7  1303               	bcf	3,6	;RP1=0, select bank0
  1173  03C8  00AB               	movwf	sprintf@sp
  1174  03C9                     l1443:
  1175                           
  1176                           ;doprnt.c: 507: va_list ap;;doprnt.c: 512: char c;;doprnt.c: 521: signed char prec;;dopr
      +                          nt.c: 525: unsigned char flag;;doprnt.c: 540: union {;doprnt.c: 541: unsigned long vd;;d
      +                          oprnt.c: 542: double integ;;doprnt.c: 543: } tmpval;;doprnt.c: 545: unsigned int val;;do
      +                          prnt.c: 546: unsigned len;;doprnt.c: 547: const char * cp;;doprnt.c: 550: *ap = __va_sta
      +                          rt();
  1177  03C9  3021               	movlw	(low ((?_sprintf| 0+1)))& (0+255)
  1178  03CA  00FF               	movwf	btemp+1
  1179  03CB  087F               	movf	btemp+1,w
  1180  03CC  00A6               	movwf	sprintf@ap
  1181                           
  1182                           ;doprnt.c: 553: while((c = *f++)) {
  1183  03CD  2C8F               	goto	l1501
  1184  03CE                     l1445:
  1185                           
  1186                           ;doprnt.c: 555: if(c != '%')
  1187  03CE  3025               	movlw	37
  1188  03CF  062C               	xorwf	sprintf@c,w
  1189  03D0  1903               	btfsc	3,2
  1190  03D1  2BD3               	goto	u1231
  1191  03D2  2BD4               	goto	u1230
  1192  03D3                     u1231:
  1193  03D3  2BE0               	goto	l1451
  1194  03D4                     u1230:
  1195  03D4                     l1447:
  1196                           
  1197                           ;doprnt.c: 557: {;doprnt.c: 558: ((*sp++ = (c)));
  1198  03D4  082C               	movf	sprintf@c,w
  1199  03D5  00FF               	movwf	btemp+1
  1200  03D6  082B               	movf	sprintf@sp,w
  1201  03D7  0084               	movwf	4
  1202  03D8  087F               	movf	btemp+1,w
  1203  03D9  1383               	bcf	3,7	;select IRP bank0
  1204  03DA  0080               	movwf	0
  1205  03DB                     l1449:
  1206  03DB  3001               	movlw	1
  1207  03DC  00FF               	movwf	btemp+1
  1208  03DD  087F               	movf	btemp+1,w
  1209  03DE  07AB               	addwf	sprintf@sp,f
  1210                           
  1211                           ;doprnt.c: 559: continue;
  1212  03DF  2C8F               	goto	l1501
  1213  03E0                     l1451:
  1214                           
  1215                           ;doprnt.c: 560: };doprnt.c: 565: flag = 0;
  1216  03E0  01A7               	clrf	sprintf@flag
  1217  03E1                     l1459:	
  1218                           ;doprnt.c: 661: switch(c = *f++) {
  1219                           
  1220  03E1  3001               	movlw	1
  1221  03E2  07A0               	addwf	sprintf@f,f
  1222  03E3  30FF               	movlw	-1
  1223  03E4  0720               	addwf	sprintf@f,w
  1224  03E5  0084               	movwf	4
  1225  03E6  120A  118A  2003  120A  118A  	fcall	stringdir
  1226  03EB  00AC               	movwf	sprintf@c
  1227                           
  1228                           ; Switch size 1, requested type "simple"
  1229                           ; Number of cases is 3, Range of values is 0 to 105
  1230                           ; switch strategies available:
  1231                           ; Name         Instructions Cycles
  1232                           ; simple_byte           10     6 (average)
  1233                           ; jumptable            260     6 (fixed)
  1234                           ;	Chosen strategy is simple_byte
  1235  03EC  3A00               	xorlw	0	; case 0
  1236  03ED  1903               	skipnz
  1237  03EE  2CA1               	goto	l1503
  1238  03EF  3A64               	xorlw	100	; case 100
  1239  03F0  1903               	skipnz
  1240  03F1  2BF6               	goto	l1461
  1241  03F2  3A0D               	xorlw	13	; case 105
  1242  03F3  1903               	skipnz
  1243  03F4  2BF6               	goto	l1461
  1244  03F5  2BD4               	goto	l1447
  1245  03F6                     l1461:
  1246                           
  1247                           ;doprnt.c: 1279: {;doprnt.c: 1285: val = (unsigned int)(*(int *)__va_arg((*(int **)ap), 
      +                          (int)0));
  1248  03F6  0826               	movf	sprintf@ap,w
  1249  03F7  0084               	movwf	4
  1250  03F8  1383               	bcf	3,7	;select IRP bank0
  1251  03F9  0800               	movf	0,w
  1252  03FA  00A9               	movwf	sprintf@val
  1253  03FB  0A84               	incf	4,f
  1254  03FC  0800               	movf	0,w
  1255  03FD  00AA               	movwf	sprintf@val+1
  1256  03FE                     l1463:
  1257  03FE  3002               	movlw	2
  1258  03FF  00FF               	movwf	btemp+1
  1259  0400  087F               	movf	btemp+1,w
  1260  0401  07A6               	addwf	sprintf@ap,f
  1261  0402                     l1465:
  1262                           
  1263                           ;doprnt.c: 1287: if((int)val < 0) {
  1264  0402  1FAA               	btfss	sprintf@val+1,7
  1265  0403  2C05               	goto	u1241
  1266  0404  2C06               	goto	u1240
  1267  0405                     u1241:
  1268  0405  2C0F               	goto	l1471
  1269  0406                     u1240:
  1270  0406                     l1467:
  1271                           
  1272                           ;doprnt.c: 1288: flag |= 0x03;
  1273  0406  3003               	movlw	3
  1274  0407  00FF               	movwf	btemp+1
  1275  0408  087F               	movf	btemp+1,w
  1276  0409  04A7               	iorwf	sprintf@flag,f
  1277  040A                     l1469:
  1278                           
  1279                           ;doprnt.c: 1289: val = -val;
  1280  040A  09A9               	comf	sprintf@val,f
  1281  040B  09AA               	comf	sprintf@val+1,f
  1282  040C  0AA9               	incf	sprintf@val,f
  1283  040D  1903               	skipnz
  1284  040E  0AAA               	incf	sprintf@val+1,f
  1285  040F                     l1471:
  1286                           
  1287                           ;doprnt.c: 1290: };doprnt.c: 1292: };doprnt.c: 1331: for(c = 1 ; c != sizeof dpowers/siz
      +                          eof dpowers[0] ; c++)
  1288  040F  01AC               	clrf	sprintf@c
  1289  0410  0AAC               	incf	sprintf@c,f
  1290  0411                     l1477:
  1291                           
  1292                           ;doprnt.c: 1332: if(val < dpowers[c])
  1293  0411  082C               	movf	sprintf@c,w
  1294  0412  00A3               	movwf	??_sprintf
  1295  0413  0723               	addwf	??_sprintf,w
  1296  0414  3E01               	addlw	low ((_dpowers-__stringbase)| (0+32768))
  1297  0415  0084               	movwf	4
  1298  0416  120A  118A  2003  120A  118A  	fcall	stringdir
  1299  041B  00A4               	movwf	??_sprintf+1
  1300  041C  120A  118A  2003  120A  118A  	fcall	stringdir
  1301  0421  00A5               	movwf	??_sprintf+2
  1302  0422  0825               	movf	??_sprintf+2,w
  1303  0423  022A               	subwf	sprintf@val+1,w
  1304  0424  1D03               	skipz
  1305  0425  2C28               	goto	u1255
  1306  0426  0824               	movf	??_sprintf+1,w
  1307  0427  0229               	subwf	sprintf@val,w
  1308  0428                     u1255:
  1309  0428  1803               	skipnc
  1310  0429  2C2B               	goto	u1251
  1311  042A  2C2C               	goto	u1250
  1312  042B                     u1251:
  1313  042B  2C2D               	goto	l1481
  1314  042C                     u1250:
  1315  042C  2C37               	goto	l1485
  1316  042D                     l1481:
  1317  042D  3001               	movlw	1
  1318  042E  00FF               	movwf	btemp+1
  1319  042F  087F               	movf	btemp+1,w
  1320  0430  07AC               	addwf	sprintf@c,f
  1321  0431                     l1483:
  1322  0431  3005               	movlw	5
  1323  0432  062C               	xorwf	sprintf@c,w
  1324  0433  1D03               	btfss	3,2
  1325  0434  2C36               	goto	u1261
  1326  0435  2C37               	goto	u1260
  1327  0436                     u1261:
  1328  0436  2C11               	goto	l1477
  1329  0437                     u1260:
  1330  0437                     l1485:
  1331                           
  1332                           ;doprnt.c: 1448: {;doprnt.c: 1464: if(flag & 0x03)
  1333  0437  0827               	movf	sprintf@flag,w
  1334  0438  3903               	andlw	3
  1335  0439  1903               	btfsc	3,2
  1336  043A  2C3C               	goto	u1271
  1337  043B  2C3D               	goto	u1270
  1338  043C                     u1271:
  1339  043C  2C48               	goto	l1491
  1340  043D                     u1270:
  1341  043D                     l1487:
  1342                           
  1343                           ;doprnt.c: 1465: ((*sp++ = ('-')));
  1344  043D  302D               	movlw	45
  1345  043E  00FF               	movwf	btemp+1
  1346  043F  082B               	movf	sprintf@sp,w
  1347  0440  0084               	movwf	4
  1348  0441  087F               	movf	btemp+1,w
  1349  0442  1383               	bcf	3,7	;select IRP bank0
  1350  0443  0080               	movwf	0
  1351  0444                     l1489:
  1352  0444  3001               	movlw	1
  1353  0445  00FF               	movwf	btemp+1
  1354  0446  087F               	movf	btemp+1,w
  1355  0447  07AB               	addwf	sprintf@sp,f
  1356  0448                     l1491:
  1357                           
  1358                           ;doprnt.c: 1495: };doprnt.c: 1498: prec = c;
  1359  0448  082C               	movf	sprintf@c,w
  1360  0449  00FF               	movwf	btemp+1
  1361  044A  087F               	movf	btemp+1,w
  1362  044B  00A8               	movwf	sprintf@prec
  1363                           
  1364                           ;doprnt.c: 1500: while(prec--) {
  1365  044C  2C86               	goto	l1499
  1366  044D                     l1493:
  1367                           
  1368                           ;doprnt.c: 1504: {;doprnt.c: 1515: c = (val / dpowers[(unsigned char)prec]) % 10 + '0';
  1369  044D  300A               	movlw	10
  1370  044E  00F7               	movwf	___lwmod@divisor
  1371  044F  3000               	movlw	0
  1372  0450  00F8               	movwf	___lwmod@divisor+1
  1373  0451  0828               	movf	sprintf@prec,w
  1374  0452  00A3               	movwf	??_sprintf
  1375  0453  0723               	addwf	??_sprintf,w
  1376  0454  3E01               	addlw	low ((_dpowers-__stringbase)| (0+32768))
  1377  0455  0084               	movwf	4
  1378  0456  120A  118A  2003  120A  118A  	fcall	stringdir
  1379  045B  00F0               	movwf	___lwdiv@divisor
  1380  045C  120A  118A  2003  120A  118A  	fcall	stringdir
  1381  0461  00F1               	movwf	___lwdiv@divisor+1
  1382  0462  082A               	movf	sprintf@val+1,w
  1383  0463  00F3               	movwf	___lwdiv@dividend+1
  1384  0464  0829               	movf	sprintf@val,w
  1385  0465  00F2               	movwf	___lwdiv@dividend
  1386  0466  120A  118A  20A6  120A  118A  	fcall	___lwdiv
  1387  046B  0871               	movf	?___lwdiv+1,w
  1388  046C  00FA               	movwf	___lwmod@dividend+1
  1389  046D  0870               	movf	?___lwdiv,w
  1390  046E  00F9               	movwf	___lwmod@dividend
  1391  046F  120A  118A  206C  120A  118A  	fcall	___lwmod
  1392  0474  0877               	movf	?___lwmod,w
  1393  0475  3E30               	addlw	48
  1394  0476  00FF               	movwf	btemp+1
  1395  0477  087F               	movf	btemp+1,w
  1396  0478  1283               	bcf	3,5	;RP0=0, select bank0
  1397  0479  1303               	bcf	3,6	;RP1=0, select bank0
  1398  047A  00AC               	movwf	sprintf@c
  1399  047B                     l1495:
  1400                           
  1401                           ;doprnt.c: 1549: };doprnt.c: 1550: ((*sp++ = (c)));
  1402  047B  082C               	movf	sprintf@c,w
  1403  047C  00FF               	movwf	btemp+1
  1404  047D  082B               	movf	sprintf@sp,w
  1405  047E  0084               	movwf	4
  1406  047F  087F               	movf	btemp+1,w
  1407  0480  1383               	bcf	3,7	;select IRP bank0
  1408  0481  0080               	movwf	0
  1409  0482                     l1497:
  1410  0482  3001               	movlw	1
  1411  0483  00FF               	movwf	btemp+1
  1412  0484  087F               	movf	btemp+1,w
  1413  0485  07AB               	addwf	sprintf@sp,f
  1414  0486                     l1499:
  1415  0486  30FF               	movlw	255
  1416  0487  00FF               	movwf	btemp+1
  1417  0488  087F               	movf	btemp+1,w
  1418  0489  07A8               	addwf	sprintf@prec,f
  1419  048A  0A28               	incf	sprintf@prec,w
  1420  048B  1D03               	btfss	3,2
  1421  048C  2C8E               	goto	u1281
  1422  048D  2C8F               	goto	u1280
  1423  048E                     u1281:
  1424  048E  2C4D               	goto	l1493
  1425  048F                     u1280:
  1426  048F                     l1501:
  1427  048F  3001               	movlw	1
  1428  0490  07A0               	addwf	sprintf@f,f
  1429  0491  30FF               	movlw	-1
  1430  0492  0720               	addwf	sprintf@f,w
  1431  0493  0084               	movwf	4
  1432  0494  120A  118A  2003  120A  118A  	fcall	stringdir
  1433  0499  00FF               	movwf	btemp+1
  1434  049A  087F               	movf	btemp+1,w
  1435  049B  00AC               	movwf	sprintf@c
  1436  049C  082C               	movf	sprintf@c,w
  1437  049D  1D03               	btfss	3,2
  1438  049E  2CA0               	goto	u1291
  1439  049F  2CA1               	goto	u1290
  1440  04A0                     u1291:
  1441  04A0  2BCE               	goto	l1445
  1442  04A1                     u1290:
  1443  04A1                     l1503:
  1444                           
  1445                           ;doprnt.c: 1564: *sp = 0;
  1446  04A1  082B               	movf	sprintf@sp,w
  1447  04A2  0084               	movwf	4
  1448  04A3  1383               	bcf	3,7	;select IRP bank0
  1449  04A4  0180               	clrf	0
  1450  04A5                     l231:
  1451  04A5  0008               	return
  1452  04A6                     __end_of_sprintf:
  1453                           
  1454                           	psect	text2
  1455  006C                     __ptext2:	
  1456 ;; *************** function ___lwmod *****************
  1457 ;; Defined at:
  1458 ;;		line 5 in file "/opt/microchip/xc8/v2.20/pic/sources/c90/common/lwmod.c"
  1459 ;; Parameters:    Size  Location     Type
  1460 ;;  divisor         2    7[COMMON] unsigned int 
  1461 ;;  dividend        2    9[COMMON] unsigned int 
  1462 ;; Auto vars:     Size  Location     Type
  1463 ;;  counter         1   11[COMMON] unsigned char 
  1464 ;; Return value:  Size  Location     Type
  1465 ;;                  2    7[COMMON] unsigned int 
  1466 ;; Registers used:
  1467 ;;		wreg, status,2, status,0, btemp+1
  1468 ;; Tracked objects:
  1469 ;;		On entry : 0/0
  1470 ;;		On exit  : 0/0
  1471 ;;		Unchanged: 0/0
  1472 ;; Data sizes:     COMMON   BANK0   BANK1   BANK3   BANK2
  1473 ;;      Params:         4       0       0       0       0
  1474 ;;      Locals:         1       0       0       0       0
  1475 ;;      Temps:          0       0       0       0       0
  1476 ;;      Totals:         5       0       0       0       0
  1477 ;;Total ram usage:        5 bytes
  1478 ;; Hardware stack levels used:    1
  1479 ;; This function calls:
  1480 ;;		Nothing
  1481 ;; This function is called by:
  1482 ;;		_sprintf
  1483 ;; This function uses a non-reentrant model
  1484 ;;
  1485                           
  1486                           
  1487                           ;psect for function ___lwmod
  1488  006C                     ___lwmod:
  1489  006C                     l1371:	
  1490                           ;incstack = 0
  1491                           ; Regs used in ___lwmod: [wreg+status,2+status,0+btemp+1]
  1492                           
  1493  006C  0877               	movf	___lwmod@divisor,w
  1494  006D  0478               	iorwf	___lwmod@divisor+1,w
  1495  006E  1903               	btfsc	3,2
  1496  006F  2871               	goto	u1151
  1497  0070  2872               	goto	u1150
  1498  0071                     u1151:
  1499  0071  28A1               	goto	l1389
  1500  0072                     u1150:
  1501  0072                     l1373:
  1502  0072  01FB               	clrf	___lwmod@counter
  1503  0073  0AFB               	incf	___lwmod@counter,f
  1504  0074  2880               	goto	l1379
  1505  0075                     l1375:
  1506  0075  3001               	movlw	1
  1507  0076                     u1165:
  1508  0076  1003               	clrc
  1509  0077  0DF7               	rlf	___lwmod@divisor,f
  1510  0078  0DF8               	rlf	___lwmod@divisor+1,f
  1511  0079  3EFF               	addlw	-1
  1512  007A  1D03               	skipz
  1513  007B  2876               	goto	u1165
  1514  007C                     l1377:
  1515  007C  3001               	movlw	1
  1516  007D  00FF               	movwf	btemp+1
  1517  007E  087F               	movf	btemp+1,w
  1518  007F  07FB               	addwf	___lwmod@counter,f
  1519  0080                     l1379:
  1520  0080  1FF8               	btfss	___lwmod@divisor+1,7
  1521  0081  2883               	goto	u1171
  1522  0082  2884               	goto	u1170
  1523  0083                     u1171:
  1524  0083  2875               	goto	l1375
  1525  0084                     u1170:
  1526  0084                     l1381:
  1527  0084  0878               	movf	___lwmod@divisor+1,w
  1528  0085  027A               	subwf	___lwmod@dividend+1,w
  1529  0086  1D03               	skipz
  1530  0087  288A               	goto	u1185
  1531  0088  0877               	movf	___lwmod@divisor,w
  1532  0089  0279               	subwf	___lwmod@dividend,w
  1533  008A                     u1185:
  1534  008A  1C03               	skipc
  1535  008B  288D               	goto	u1181
  1536  008C  288E               	goto	u1180
  1537  008D                     u1181:
  1538  008D  2894               	goto	l1385
  1539  008E                     u1180:
  1540  008E                     l1383:
  1541  008E  0877               	movf	___lwmod@divisor,w
  1542  008F  02F9               	subwf	___lwmod@dividend,f
  1543  0090  0878               	movf	___lwmod@divisor+1,w
  1544  0091  1C03               	skipc
  1545  0092  03FA               	decf	___lwmod@dividend+1,f
  1546  0093  02FA               	subwf	___lwmod@dividend+1,f
  1547  0094                     l1385:
  1548  0094  3001               	movlw	1
  1549  0095                     u1195:
  1550  0095  1003               	clrc
  1551  0096  0CF8               	rrf	___lwmod@divisor+1,f
  1552  0097  0CF7               	rrf	___lwmod@divisor,f
  1553  0098  3EFF               	addlw	-1
  1554  0099  1D03               	skipz
  1555  009A  2895               	goto	u1195
  1556  009B                     l1387:
  1557  009B  3001               	movlw	1
  1558  009C  02FB               	subwf	___lwmod@counter,f
  1559  009D  1D03               	btfss	3,2
  1560  009E  28A0               	goto	u1201
  1561  009F  28A1               	goto	u1200
  1562  00A0                     u1201:
  1563  00A0  2884               	goto	l1381
  1564  00A1                     u1200:
  1565  00A1                     l1389:
  1566  00A1  087A               	movf	___lwmod@dividend+1,w
  1567  00A2  00F8               	movwf	?___lwmod+1
  1568  00A3  0879               	movf	___lwmod@dividend,w
  1569  00A4  00F7               	movwf	?___lwmod
  1570  00A5                     l517:
  1571  00A5  0008               	return
  1572  00A6                     __end_of___lwmod:
  1573                           
  1574                           	psect	text3
  1575  00A6                     __ptext3:	
  1576 ;; *************** function ___lwdiv *****************
  1577 ;; Defined at:
  1578 ;;		line 5 in file "/opt/microchip/xc8/v2.20/pic/sources/c90/common/lwdiv.c"
  1579 ;; Parameters:    Size  Location     Type
  1580 ;;  divisor         2    0[COMMON] unsigned int 
  1581 ;;  dividend        2    2[COMMON] unsigned int 
  1582 ;; Auto vars:     Size  Location     Type
  1583 ;;  quotient        2    4[COMMON] unsigned int 
  1584 ;;  counter         1    6[COMMON] unsigned char 
  1585 ;; Return value:  Size  Location     Type
  1586 ;;                  2    0[COMMON] unsigned int 
  1587 ;; Registers used:
  1588 ;;		wreg, status,2, status,0, btemp+1
  1589 ;; Tracked objects:
  1590 ;;		On entry : 0/0
  1591 ;;		On exit  : 0/0
  1592 ;;		Unchanged: 0/0
  1593 ;; Data sizes:     COMMON   BANK0   BANK1   BANK3   BANK2
  1594 ;;      Params:         4       0       0       0       0
  1595 ;;      Locals:         3       0       0       0       0
  1596 ;;      Temps:          0       0       0       0       0
  1597 ;;      Totals:         7       0       0       0       0
  1598 ;;Total ram usage:        7 bytes
  1599 ;; Hardware stack levels used:    1
  1600 ;; This function calls:
  1601 ;;		Nothing
  1602 ;; This function is called by:
  1603 ;;		_sprintf
  1604 ;; This function uses a non-reentrant model
  1605 ;;
  1606                           
  1607                           
  1608                           ;psect for function ___lwdiv
  1609  00A6                     ___lwdiv:
  1610  00A6                     l1345:	
  1611                           ;incstack = 0
  1612                           ; Regs used in ___lwdiv: [wreg+status,2+status,0+btemp+1]
  1613                           
  1614  00A6  01F4               	clrf	___lwdiv@quotient
  1615  00A7  01F5               	clrf	___lwdiv@quotient+1
  1616  00A8                     l1347:
  1617  00A8  0870               	movf	___lwdiv@divisor,w
  1618  00A9  0471               	iorwf	___lwdiv@divisor+1,w
  1619  00AA  1903               	btfsc	3,2
  1620  00AB  28AD               	goto	u1081
  1621  00AC  28AE               	goto	u1080
  1622  00AD                     u1081:
  1623  00AD  28E5               	goto	l1367
  1624  00AE                     u1080:
  1625  00AE                     l1349:
  1626  00AE  01F6               	clrf	___lwdiv@counter
  1627  00AF  0AF6               	incf	___lwdiv@counter,f
  1628  00B0  28BC               	goto	l1355
  1629  00B1                     l1351:
  1630  00B1  3001               	movlw	1
  1631  00B2                     u1095:
  1632  00B2  1003               	clrc
  1633  00B3  0DF0               	rlf	___lwdiv@divisor,f
  1634  00B4  0DF1               	rlf	___lwdiv@divisor+1,f
  1635  00B5  3EFF               	addlw	-1
  1636  00B6  1D03               	skipz
  1637  00B7  28B2               	goto	u1095
  1638  00B8                     l1353:
  1639  00B8  3001               	movlw	1
  1640  00B9  00FF               	movwf	btemp+1
  1641  00BA  087F               	movf	btemp+1,w
  1642  00BB  07F6               	addwf	___lwdiv@counter,f
  1643  00BC                     l1355:
  1644  00BC  1FF1               	btfss	___lwdiv@divisor+1,7
  1645  00BD  28BF               	goto	u1101
  1646  00BE  28C0               	goto	u1100
  1647  00BF                     u1101:
  1648  00BF  28B1               	goto	l1351
  1649  00C0                     u1100:
  1650  00C0                     l1357:
  1651  00C0  3001               	movlw	1
  1652  00C1                     u1115:
  1653  00C1  1003               	clrc
  1654  00C2  0DF4               	rlf	___lwdiv@quotient,f
  1655  00C3  0DF5               	rlf	___lwdiv@quotient+1,f
  1656  00C4  3EFF               	addlw	-1
  1657  00C5  1D03               	skipz
  1658  00C6  28C1               	goto	u1115
  1659  00C7  0871               	movf	___lwdiv@divisor+1,w
  1660  00C8  0273               	subwf	___lwdiv@dividend+1,w
  1661  00C9  1D03               	skipz
  1662  00CA  28CD               	goto	u1125
  1663  00CB  0870               	movf	___lwdiv@divisor,w
  1664  00CC  0272               	subwf	___lwdiv@dividend,w
  1665  00CD                     u1125:
  1666  00CD  1C03               	skipc
  1667  00CE  28D0               	goto	u1121
  1668  00CF  28D1               	goto	u1120
  1669  00D0                     u1121:
  1670  00D0  28D8               	goto	l1363
  1671  00D1                     u1120:
  1672  00D1                     l1359:
  1673  00D1  0870               	movf	___lwdiv@divisor,w
  1674  00D2  02F2               	subwf	___lwdiv@dividend,f
  1675  00D3  0871               	movf	___lwdiv@divisor+1,w
  1676  00D4  1C03               	skipc
  1677  00D5  03F3               	decf	___lwdiv@dividend+1,f
  1678  00D6  02F3               	subwf	___lwdiv@dividend+1,f
  1679  00D7                     l1361:
  1680  00D7  1474               	bsf	___lwdiv@quotient,0
  1681  00D8                     l1363:
  1682  00D8  3001               	movlw	1
  1683  00D9                     u1135:
  1684  00D9  1003               	clrc
  1685  00DA  0CF1               	rrf	___lwdiv@divisor+1,f
  1686  00DB  0CF0               	rrf	___lwdiv@divisor,f
  1687  00DC  3EFF               	addlw	-1
  1688  00DD  1D03               	skipz
  1689  00DE  28D9               	goto	u1135
  1690  00DF                     l1365:
  1691  00DF  3001               	movlw	1
  1692  00E0  02F6               	subwf	___lwdiv@counter,f
  1693  00E1  1D03               	btfss	3,2
  1694  00E2  28E4               	goto	u1141
  1695  00E3  28E5               	goto	u1140
  1696  00E4                     u1141:
  1697  00E4  28C0               	goto	l1357
  1698  00E5                     u1140:
  1699  00E5                     l1367:
  1700  00E5  0875               	movf	___lwdiv@quotient+1,w
  1701  00E6  00F1               	movwf	?___lwdiv+1
  1702  00E7  0874               	movf	___lwdiv@quotient,w
  1703  00E8  00F0               	movwf	?___lwdiv
  1704  00E9                     l507:
  1705  00E9  0008               	return
  1706  00EA                     __end_of___lwdiv:
  1707                           
  1708                           	psect	text4
  1709  030C                     __ptext4:	
  1710 ;; *************** function ___xxtofl *****************
  1711 ;; Defined at:
  1712 ;;		line 10 in file "/opt/microchip/xc8/v2.20/pic/sources/c90/common/xxtofl.c"
  1713 ;; Parameters:    Size  Location     Type
  1714 ;;  sign            1    wreg     unsigned char 
  1715 ;;  val             4    0[COMMON] long 
  1716 ;; Auto vars:     Size  Location     Type
  1717 ;;  sign            1    8[COMMON] unsigned char 
  1718 ;;  arg             4   10[COMMON] unsigned long 
  1719 ;;  exp             1    9[COMMON] unsigned char 
  1720 ;; Return value:  Size  Location     Type
  1721 ;;                  4    0[COMMON] unsigned char 
  1722 ;; Registers used:
  1723 ;;		wreg, status,2, status,0, btemp+1
  1724 ;; Tracked objects:
  1725 ;;		On entry : 0/0
  1726 ;;		On exit  : 0/0
  1727 ;;		Unchanged: 0/0
  1728 ;; Data sizes:     COMMON   BANK0   BANK1   BANK3   BANK2
  1729 ;;      Params:         4       0       0       0       0
  1730 ;;      Locals:         6       0       0       0       0
  1731 ;;      Temps:          4       0       0       0       0
  1732 ;;      Totals:        14       0       0       0       0
  1733 ;;Total ram usage:       14 bytes
  1734 ;; Hardware stack levels used:    1
  1735 ;; This function calls:
  1736 ;;		Nothing
  1737 ;; This function is called by:
  1738 ;;		_main
  1739 ;; This function uses a non-reentrant model
  1740 ;;
  1741                           
  1742                           
  1743                           ;psect for function ___xxtofl
  1744  030C                     ___xxtofl:
  1745                           
  1746                           ;incstack = 0
  1747                           ; Regs used in ___xxtofl: [wreg+status,2+status,0+btemp+1]
  1748                           ;___xxtofl@sign stored from wreg
  1749  030C  00F8               	movwf	___xxtofl@sign
  1750  030D                     l1739:
  1751  030D  0878               	movf	___xxtofl@sign,w
  1752  030E  1903               	btfsc	3,2
  1753  030F  2B11               	goto	u1811
  1754  0310  2B12               	goto	u1810
  1755  0311                     u1811:
  1756  0311  2B26               	goto	l1745
  1757  0312                     u1810:
  1758  0312                     l1741:
  1759  0312  1FF3               	btfss	___xxtofl@val+3,7
  1760  0313  2B15               	goto	u1821
  1761  0314  2B16               	goto	u1820
  1762  0315                     u1821:
  1763  0315  2B26               	goto	l1745
  1764  0316                     u1820:
  1765  0316                     l1743:
  1766  0316  0970               	comf	___xxtofl@val,w
  1767  0317  00FA               	movwf	___xxtofl@arg
  1768  0318  0971               	comf	___xxtofl@val+1,w
  1769  0319  00FB               	movwf	___xxtofl@arg+1
  1770  031A  0972               	comf	___xxtofl@val+2,w
  1771  031B  00FC               	movwf	___xxtofl@arg+2
  1772  031C  0973               	comf	___xxtofl@val+3,w
  1773  031D  00FD               	movwf	___xxtofl@arg+3
  1774  031E  0AFA               	incf	___xxtofl@arg,f
  1775  031F  1903               	skipnz
  1776  0320  0AFB               	incf	___xxtofl@arg+1,f
  1777  0321  1903               	skipnz
  1778  0322  0AFC               	incf	___xxtofl@arg+2,f
  1779  0323  1903               	skipnz
  1780  0324  0AFD               	incf	___xxtofl@arg+3,f
  1781  0325  2B2E               	goto	l668
  1782  0326                     l1745:
  1783  0326  0873               	movf	___xxtofl@val+3,w
  1784  0327  00FD               	movwf	___xxtofl@arg+3
  1785  0328  0872               	movf	___xxtofl@val+2,w
  1786  0329  00FC               	movwf	___xxtofl@arg+2
  1787  032A  0871               	movf	___xxtofl@val+1,w
  1788  032B  00FB               	movwf	___xxtofl@arg+1
  1789  032C  0870               	movf	___xxtofl@val,w
  1790  032D  00FA               	movwf	___xxtofl@arg
  1791  032E                     l668:
  1792  032E  0873               	movf	___xxtofl@val+3,w
  1793  032F  0472               	iorwf	___xxtofl@val+2,w
  1794  0330  0471               	iorwf	___xxtofl@val+1,w
  1795  0331  0470               	iorwf	___xxtofl@val,w
  1796  0332  1D03               	skipz
  1797  0333  2B35               	goto	u1831
  1798  0334  2B36               	goto	u1830
  1799  0335                     u1831:
  1800  0335  2B3F               	goto	l1751
  1801  0336                     u1830:
  1802  0336                     l1747:
  1803  0336  3000               	movlw	0
  1804  0337  00F3               	movwf	?___xxtofl+3
  1805  0338  3000               	movlw	0
  1806  0339  00F2               	movwf	?___xxtofl+2
  1807  033A  3000               	movlw	0
  1808  033B  00F1               	movwf	?___xxtofl+1
  1809  033C  3000               	movlw	0
  1810  033D  00F0               	movwf	?___xxtofl
  1811  033E  2BC5               	goto	l670
  1812  033F                     l1751:
  1813  033F  3096               	movlw	150
  1814  0340  00FF               	movwf	btemp+1
  1815  0341  087F               	movf	btemp+1,w
  1816  0342  00F9               	movwf	___xxtofl@exp
  1817  0343  2B51               	goto	l1757
  1818  0344                     l1753:
  1819  0344  3001               	movlw	1
  1820  0345  00FF               	movwf	btemp+1
  1821  0346  087F               	movf	btemp+1,w
  1822  0347  07F9               	addwf	___xxtofl@exp,f
  1823  0348                     l1755:
  1824  0348  3001               	movlw	1
  1825  0349                     u1845:
  1826  0349  1003               	clrc
  1827  034A  0CFD               	rrf	___xxtofl@arg+3,f
  1828  034B  0CFC               	rrf	___xxtofl@arg+2,f
  1829  034C  0CFB               	rrf	___xxtofl@arg+1,f
  1830  034D  0CFA               	rrf	___xxtofl@arg,f
  1831  034E  3EFF               	addlw	-1
  1832  034F  1D03               	skipz
  1833  0350  2B49               	goto	u1845
  1834  0351                     l1757:
  1835  0351  30FE               	movlw	254
  1836  0352  057D               	andwf	___xxtofl@arg+3,w
  1837  0353  1D03               	btfss	3,2
  1838  0354  2B56               	goto	u1851
  1839  0355  2B57               	goto	u1850
  1840  0356                     u1851:
  1841  0356  2B44               	goto	l1753
  1842  0357                     u1850:
  1843  0357  2B73               	goto	l1765
  1844  0358                     l1759:
  1845  0358  3001               	movlw	1
  1846  0359  00FF               	movwf	btemp+1
  1847  035A  087F               	movf	btemp+1,w
  1848  035B  07F9               	addwf	___xxtofl@exp,f
  1849  035C                     l1761:
  1850  035C  3001               	movlw	1
  1851  035D  07FA               	addwf	___xxtofl@arg,f
  1852  035E  3000               	movlw	0
  1853  035F  1803               	skipnc
  1854  0360  3001               	movlw	1
  1855  0361  07FB               	addwf	___xxtofl@arg+1,f
  1856  0362  3000               	movlw	0
  1857  0363  1803               	skipnc
  1858  0364  3001               	movlw	1
  1859  0365  07FC               	addwf	___xxtofl@arg+2,f
  1860  0366  3000               	movlw	0
  1861  0367  1803               	skipnc
  1862  0368  3001               	movlw	1
  1863  0369  07FD               	addwf	___xxtofl@arg+3,f
  1864  036A                     l1763:
  1865  036A  3001               	movlw	1
  1866  036B                     u1865:
  1867  036B  1003               	clrc
  1868  036C  0CFD               	rrf	___xxtofl@arg+3,f
  1869  036D  0CFC               	rrf	___xxtofl@arg+2,f
  1870  036E  0CFB               	rrf	___xxtofl@arg+1,f
  1871  036F  0CFA               	rrf	___xxtofl@arg,f
  1872  0370  3EFF               	addlw	-1
  1873  0371  1D03               	skipz
  1874  0372  2B6B               	goto	u1865
  1875  0373                     l1765:
  1876  0373  30FF               	movlw	255
  1877  0374  057D               	andwf	___xxtofl@arg+3,w
  1878  0375  1D03               	btfss	3,2
  1879  0376  2B78               	goto	u1871
  1880  0377  2B79               	goto	u1870
  1881  0378                     u1871:
  1882  0378  2B58               	goto	l1759
  1883  0379                     u1870:
  1884  0379  2B85               	goto	l1769
  1885  037A                     l1767:
  1886  037A  3001               	movlw	1
  1887  037B  02F9               	subwf	___xxtofl@exp,f
  1888  037C  3001               	movlw	1
  1889  037D  00F4               	movwf	??___xxtofl
  1890  037E                     u1885:
  1891  037E  1003               	clrc
  1892  037F  0DFA               	rlf	___xxtofl@arg,f
  1893  0380  0DFB               	rlf	___xxtofl@arg+1,f
  1894  0381  0DFC               	rlf	___xxtofl@arg+2,f
  1895  0382  0DFD               	rlf	___xxtofl@arg+3,f
  1896  0383  0BF4               	decfsz	??___xxtofl,f
  1897  0384  2B7E               	goto	u1885
  1898  0385                     l1769:
  1899  0385  1BFC               	btfsc	___xxtofl@arg+2,7
  1900  0386  2B88               	goto	u1891
  1901  0387  2B89               	goto	u1890
  1902  0388                     u1891:
  1903  0388  2B8F               	goto	l681
  1904  0389                     u1890:
  1905  0389                     l1771:
  1906  0389  3002               	movlw	2
  1907  038A  0279               	subwf	___xxtofl@exp,w
  1908  038B  1803               	skipnc
  1909  038C  2B8E               	goto	u1901
  1910  038D  2B8F               	goto	u1900
  1911  038E                     u1901:
  1912  038E  2B7A               	goto	l1767
  1913  038F                     u1900:
  1914  038F                     l681:
  1915  038F  1879               	btfsc	___xxtofl@exp,0
  1916  0390  2B92               	goto	u1911
  1917  0391  2B93               	goto	u1910
  1918  0392                     u1911:
  1919  0392  2B9B               	goto	l682
  1920  0393                     u1910:
  1921  0393                     l1773:
  1922  0393  30FF               	movlw	255
  1923  0394  05FA               	andwf	___xxtofl@arg,f
  1924  0395  30FF               	movlw	255
  1925  0396  05FB               	andwf	___xxtofl@arg+1,f
  1926  0397  307F               	movlw	127
  1927  0398  05FC               	andwf	___xxtofl@arg+2,f
  1928  0399  30FF               	movlw	255
  1929  039A  05FD               	andwf	___xxtofl@arg+3,f
  1930  039B                     l682:
  1931  039B  1003               	clrc
  1932  039C  0CF9               	rrf	___xxtofl@exp,f
  1933  039D                     l1775:
  1934  039D  0879               	movf	___xxtofl@exp,w
  1935  039E  00F4               	movwf	??___xxtofl
  1936  039F  01F5               	clrf	??___xxtofl+1
  1937  03A0  01F6               	clrf	??___xxtofl+2
  1938  03A1  01F7               	clrf	??___xxtofl+3
  1939  03A2  3018               	movlw	24
  1940  03A3                     u1925:
  1941  03A3  1003               	clrc
  1942  03A4  0DF4               	rlf	??___xxtofl,f
  1943  03A5  0DF5               	rlf	??___xxtofl+1,f
  1944  03A6  0DF6               	rlf	??___xxtofl+2,f
  1945  03A7  0DF7               	rlf	??___xxtofl+3,f
  1946  03A8                     u1920:
  1947  03A8  3EFF               	addlw	-1
  1948  03A9  1D03               	skipz
  1949  03AA  2BA3               	goto	u1925
  1950  03AB  0874               	movf	??___xxtofl,w
  1951  03AC  04FA               	iorwf	___xxtofl@arg,f
  1952  03AD  0875               	movf	??___xxtofl+1,w
  1953  03AE  04FB               	iorwf	___xxtofl@arg+1,f
  1954  03AF  0876               	movf	??___xxtofl+2,w
  1955  03B0  04FC               	iorwf	___xxtofl@arg+2,f
  1956  03B1  0877               	movf	??___xxtofl+3,w
  1957  03B2  04FD               	iorwf	___xxtofl@arg+3,f
  1958  03B3                     l1777:
  1959  03B3  0878               	movf	___xxtofl@sign,w
  1960  03B4  1903               	btfsc	3,2
  1961  03B5  2BB7               	goto	u1931
  1962  03B6  2BB8               	goto	u1930
  1963  03B7                     u1931:
  1964  03B7  2BBD               	goto	l1783
  1965  03B8                     u1930:
  1966  03B8                     l1779:
  1967  03B8  1FF3               	btfss	___xxtofl@val+3,7
  1968  03B9  2BBB               	goto	u1941
  1969  03BA  2BBC               	goto	u1940
  1970  03BB                     u1941:
  1971  03BB  2BBD               	goto	l1783
  1972  03BC                     u1940:
  1973  03BC                     l1781:
  1974  03BC  17FD               	bsf	___xxtofl@arg+3,7
  1975  03BD                     l1783:
  1976  03BD  087D               	movf	___xxtofl@arg+3,w
  1977  03BE  00F3               	movwf	?___xxtofl+3
  1978  03BF  087C               	movf	___xxtofl@arg+2,w
  1979  03C0  00F2               	movwf	?___xxtofl+2
  1980  03C1  087B               	movf	___xxtofl@arg+1,w
  1981  03C2  00F1               	movwf	?___xxtofl+1
  1982  03C3  087A               	movf	___xxtofl@arg,w
  1983  03C4  00F0               	movwf	?___xxtofl
  1984  03C5                     l670:
  1985  03C5  0008               	return
  1986  03C6                     __end_of___xxtofl:
  1987                           
  1988                           	psect	text5
  1989  01F0                     __ptext5:	
  1990 ;; *************** function ___fltol *****************
  1991 ;; Defined at:
  1992 ;;		line 43 in file "/opt/microchip/xc8/v2.20/pic/sources/c90/common/fltol.c"
  1993 ;; Parameters:    Size  Location     Type
  1994 ;;  f1              4    0[COMMON] unsigned char 
  1995 ;; Auto vars:     Size  Location     Type
  1996 ;;  exp1            1    9[COMMON] unsigned char 
  1997 ;;  sign1           1    8[COMMON] unsigned char 
  1998 ;; Return value:  Size  Location     Type
  1999 ;;                  4    0[COMMON] long 
  2000 ;; Registers used:
  2001 ;;		wreg, status,2, status,0, btemp+1
  2002 ;; Tracked objects:
  2003 ;;		On entry : 0/0
  2004 ;;		On exit  : 0/0
  2005 ;;		Unchanged: 0/0
  2006 ;; Data sizes:     COMMON   BANK0   BANK1   BANK3   BANK2
  2007 ;;      Params:         4       0       0       0       0
  2008 ;;      Locals:         2       0       0       0       0
  2009 ;;      Temps:          4       0       0       0       0
  2010 ;;      Totals:        10       0       0       0       0
  2011 ;;Total ram usage:       10 bytes
  2012 ;; Hardware stack levels used:    1
  2013 ;; This function calls:
  2014 ;;		Nothing
  2015 ;; This function is called by:
  2016 ;;		_main
  2017 ;; This function uses a non-reentrant model
  2018 ;;
  2019                           
  2020                           
  2021                           ;psect for function ___fltol
  2022  01F0                     ___fltol:
  2023  01F0                     l1557:	
  2024                           ;incstack = 0
  2025                           ; Regs used in ___fltol: [wreg+status,2+status,0+btemp+1]
  2026                           
  2027  01F0  1003               	clrc
  2028  01F1  0D72               	rlf	___fltol@f1+2,w
  2029  01F2  0D73               	rlf	___fltol@f1+3,w
  2030  01F3  00FF               	movwf	btemp+1
  2031  01F4  087F               	movf	btemp+1,w
  2032  01F5  00F9               	movwf	___fltol@exp1
  2033  01F6  0879               	movf	___fltol@exp1,w
  2034  01F7  1D03               	btfss	3,2
  2035  01F8  29FA               	goto	u1421
  2036  01F9  29FB               	goto	u1420
  2037  01FA                     u1421:
  2038  01FA  2A04               	goto	l1563
  2039  01FB                     u1420:
  2040  01FB                     l1559:
  2041  01FB  3000               	movlw	0
  2042  01FC  00F3               	movwf	?___fltol+3
  2043  01FD  3000               	movlw	0
  2044  01FE  00F2               	movwf	?___fltol+2
  2045  01FF  3000               	movlw	0
  2046  0200  00F1               	movwf	?___fltol+1
  2047  0201  3000               	movlw	0
  2048  0202  00F0               	movwf	?___fltol
  2049  0203  2A69               	goto	l421
  2050  0204                     l1563:
  2051  0204  0870               	movf	___fltol@f1,w
  2052  0205  00F4               	movwf	??___fltol
  2053  0206  0871               	movf	___fltol@f1+1,w
  2054  0207  00F5               	movwf	??___fltol+1
  2055  0208  0872               	movf	___fltol@f1+2,w
  2056  0209  00F6               	movwf	??___fltol+2
  2057  020A  0873               	movf	___fltol@f1+3,w
  2058  020B  00F7               	movwf	??___fltol+3
  2059  020C  301F               	movlw	31
  2060  020D                     u1435:
  2061  020D  1003               	clrc
  2062  020E  0CF7               	rrf	??___fltol+3,f
  2063  020F  0CF6               	rrf	??___fltol+2,f
  2064  0210  0CF5               	rrf	??___fltol+1,f
  2065  0211  0CF4               	rrf	??___fltol,f
  2066  0212                     u1430:
  2067  0212  3EFF               	addlw	-1
  2068  0213  1D03               	skipz
  2069  0214  2A0D               	goto	u1435
  2070  0215  0874               	movf	??___fltol,w
  2071  0216  00FF               	movwf	btemp+1
  2072  0217  087F               	movf	btemp+1,w
  2073  0218  00F8               	movwf	___fltol@sign1
  2074  0219                     l1565:
  2075  0219  17F2               	bsf	___fltol@f1+2,7
  2076  021A                     l1567:
  2077  021A  30FF               	movlw	255
  2078  021B  05F0               	andwf	___fltol@f1,f
  2079  021C  30FF               	movlw	255
  2080  021D  05F1               	andwf	___fltol@f1+1,f
  2081  021E  30FF               	movlw	255
  2082  021F  05F2               	andwf	___fltol@f1+2,f
  2083  0220  3000               	movlw	0
  2084  0221  05F3               	andwf	___fltol@f1+3,f
  2085  0222                     l1569:
  2086  0222  3096               	movlw	150
  2087  0223  02F9               	subwf	___fltol@exp1,f
  2088  0224                     l1571:
  2089  0224  1FF9               	btfss	___fltol@exp1,7
  2090  0225  2A27               	goto	u1441
  2091  0226  2A28               	goto	u1440
  2092  0227                     u1441:
  2093  0227  2A42               	goto	l1583
  2094  0228                     u1440:
  2095  0228                     l1573:
  2096  0228  0879               	movf	___fltol@exp1,w
  2097  0229  3A80               	xorlw	128
  2098  022A  3E97               	addlw	151
  2099  022B  1803               	skipnc
  2100  022C  2A2E               	goto	u1451
  2101  022D  2A2F               	goto	u1450
  2102  022E                     u1451:
  2103  022E  2A30               	goto	l1579
  2104  022F                     u1450:
  2105  022F  29FB               	goto	l1559
  2106  0230                     l1579:
  2107  0230  3001               	movlw	1
  2108  0231                     u1465:
  2109  0231  1003               	clrc
  2110  0232  0CF3               	rrf	___fltol@f1+3,f
  2111  0233  0CF2               	rrf	___fltol@f1+2,f
  2112  0234  0CF1               	rrf	___fltol@f1+1,f
  2113  0235  0CF0               	rrf	___fltol@f1,f
  2114  0236  3EFF               	addlw	-1
  2115  0237  1D03               	skipz
  2116  0238  2A31               	goto	u1465
  2117  0239                     l1581:
  2118  0239  3001               	movlw	1
  2119  023A  00FF               	movwf	btemp+1
  2120  023B  087F               	movf	btemp+1,w
  2121  023C  07F9               	addwf	___fltol@exp1,f
  2122  023D  1D03               	btfss	3,2
  2123  023E  2A40               	goto	u1471
  2124  023F  2A41               	goto	u1470
  2125  0240                     u1471:
  2126  0240  2A30               	goto	l1579
  2127  0241                     u1470:
  2128  0241  2A59               	goto	l1591
  2129  0242                     l1583:
  2130  0242  3020               	movlw	32
  2131  0243  0279               	subwf	___fltol@exp1,w
  2132  0244  1C03               	skipc
  2133  0245  2A47               	goto	u1481
  2134  0246  2A48               	goto	u1480
  2135  0247                     u1481:
  2136  0247  2A54               	goto	l428
  2137  0248                     u1480:
  2138  0248  29FB               	goto	l1559
  2139  0249                     l1589:
  2140  0249  3001               	movlw	1
  2141  024A  00F4               	movwf	??___fltol
  2142  024B                     u1495:
  2143  024B  1003               	clrc
  2144  024C  0DF0               	rlf	___fltol@f1,f
  2145  024D  0DF1               	rlf	___fltol@f1+1,f
  2146  024E  0DF2               	rlf	___fltol@f1+2,f
  2147  024F  0DF3               	rlf	___fltol@f1+3,f
  2148  0250  0BF4               	decfsz	??___fltol,f
  2149  0251  2A4B               	goto	u1495
  2150  0252  3001               	movlw	1
  2151  0253  02F9               	subwf	___fltol@exp1,f
  2152  0254                     l428:
  2153  0254  0879               	movf	___fltol@exp1,w
  2154  0255  1D03               	btfss	3,2
  2155  0256  2A58               	goto	u1501
  2156  0257  2A59               	goto	u1500
  2157  0258                     u1501:
  2158  0258  2A49               	goto	l1589
  2159  0259                     u1500:
  2160  0259                     l1591:
  2161  0259  0878               	movf	___fltol@sign1,w
  2162  025A  1903               	btfsc	3,2
  2163  025B  2A5D               	goto	u1511
  2164  025C  2A5E               	goto	u1510
  2165  025D                     u1511:
  2166  025D  2A69               	goto	l431
  2167  025E                     u1510:
  2168  025E                     l1593:
  2169  025E  09F0               	comf	___fltol@f1,f
  2170  025F  09F1               	comf	___fltol@f1+1,f
  2171  0260  09F2               	comf	___fltol@f1+2,f
  2172  0261  09F3               	comf	___fltol@f1+3,f
  2173  0262  0AF0               	incf	___fltol@f1,f
  2174  0263  1903               	skipnz
  2175  0264  0AF1               	incf	___fltol@f1+1,f
  2176  0265  1903               	skipnz
  2177  0266  0AF2               	incf	___fltol@f1+2,f
  2178  0267  1903               	skipnz
  2179  0268  0AF3               	incf	___fltol@f1+3,f
  2180  0269                     l431:
  2181  0269                     l421:
  2182  0269  0008               	return
  2183  026A                     __end_of___fltol:
  2184                           
  2185                           	psect	text6
  2186  026A                     __ptext6:	
  2187 ;; *************** function ___flge *****************
  2188 ;; Defined at:
  2189 ;;		line 4 in file "/opt/microchip/xc8/v2.20/pic/sources/c90/common/flge.c"
  2190 ;; Parameters:    Size  Location     Type
  2191 ;;  ff1             4    0[COMMON] long 
  2192 ;;  ff2             4    4[COMMON] long 
  2193 ;; Auto vars:     Size  Location     Type
  2194 ;;		None
  2195 ;; Return value:  Size  Location     Type
  2196 ;;		None               void
  2197 ;; Registers used:
  2198 ;;		wreg, status,2, status,0
  2199 ;; Tracked objects:
  2200 ;;		On entry : 0/0
  2201 ;;		On exit  : 0/0
  2202 ;;		Unchanged: 0/0
  2203 ;; Data sizes:     COMMON   BANK0   BANK1   BANK3   BANK2
  2204 ;;      Params:         8       0       0       0       0
  2205 ;;      Locals:         0       0       0       0       0
  2206 ;;      Temps:          4       0       0       0       0
  2207 ;;      Totals:        12       0       0       0       0
  2208 ;;Total ram usage:       12 bytes
  2209 ;; Hardware stack levels used:    1
  2210 ;; This function calls:
  2211 ;;		Nothing
  2212 ;; This function is called by:
  2213 ;;		_main
  2214 ;; This function uses a non-reentrant model
  2215 ;;
  2216                           
  2217                           
  2218                           ;psect for function ___flge
  2219  026A                     ___flge:
  2220  026A                     l1537:	
  2221                           ;incstack = 0
  2222                           ; Regs used in ___flge: [wreg+status,2+status,0]
  2223                           
  2224  026A  3000               	movlw	0
  2225  026B  0570               	andwf	___flge@ff1,w
  2226  026C  00F8               	movwf	??___flge
  2227  026D  3000               	movlw	0
  2228  026E  0571               	andwf	___flge@ff1+1,w
  2229  026F  00F9               	movwf	??___flge+1
  2230  0270  3080               	movlw	128
  2231  0271  0572               	andwf	___flge@ff1+2,w
  2232  0272  00FA               	movwf	??___flge+2
  2233  0273  307F               	movlw	127
  2234  0274  0573               	andwf	___flge@ff1+3,w
  2235  0275  00FB               	movwf	??___flge+3
  2236  0276  087B               	movf	??___flge+3,w
  2237  0277  047A               	iorwf	??___flge+2,w
  2238  0278  0479               	iorwf	??___flge+1,w
  2239  0279  0478               	iorwf	??___flge,w
  2240  027A  1D03               	skipz
  2241  027B  2A7D               	goto	u1351
  2242  027C  2A7E               	goto	u1350
  2243  027D                     u1351:
  2244  027D  2A86               	goto	l409
  2245  027E                     u1350:
  2246  027E                     l1539:
  2247  027E  3000               	movlw	0
  2248  027F  00F3               	movwf	___flge@ff1+3
  2249  0280  3000               	movlw	0
  2250  0281  00F2               	movwf	___flge@ff1+2
  2251  0282  3000               	movlw	0
  2252  0283  00F1               	movwf	___flge@ff1+1
  2253  0284  3000               	movlw	0
  2254  0285  00F0               	movwf	___flge@ff1
  2255  0286                     l409:
  2256  0286  3000               	movlw	0
  2257  0287  0574               	andwf	___flge@ff2,w
  2258  0288  00F8               	movwf	??___flge
  2259  0289  3000               	movlw	0
  2260  028A  0575               	andwf	___flge@ff2+1,w
  2261  028B  00F9               	movwf	??___flge+1
  2262  028C  3080               	movlw	128
  2263  028D  0576               	andwf	___flge@ff2+2,w
  2264  028E  00FA               	movwf	??___flge+2
  2265  028F  307F               	movlw	127
  2266  0290  0577               	andwf	___flge@ff2+3,w
  2267  0291  00FB               	movwf	??___flge+3
  2268  0292  087B               	movf	??___flge+3,w
  2269  0293  047A               	iorwf	??___flge+2,w
  2270  0294  0479               	iorwf	??___flge+1,w
  2271  0295  0478               	iorwf	??___flge,w
  2272  0296  1D03               	skipz
  2273  0297  2A99               	goto	u1361
  2274  0298  2A9A               	goto	u1360
  2275  0299                     u1361:
  2276  0299  2AA2               	goto	l1543
  2277  029A                     u1360:
  2278  029A                     l1541:
  2279  029A  3000               	movlw	0
  2280  029B  00F7               	movwf	___flge@ff2+3
  2281  029C  3000               	movlw	0
  2282  029D  00F6               	movwf	___flge@ff2+2
  2283  029E  3000               	movlw	0
  2284  029F  00F5               	movwf	___flge@ff2+1
  2285  02A0  3000               	movlw	0
  2286  02A1  00F4               	movwf	___flge@ff2
  2287  02A2                     l1543:
  2288  02A2  1FF3               	btfss	___flge@ff1+3,7
  2289  02A3  2AA5               	goto	u1371
  2290  02A4  2AA6               	goto	u1370
  2291  02A5                     u1371:
  2292  02A5  2ACA               	goto	l1547
  2293  02A6                     u1370:
  2294  02A6                     l1545:
  2295  02A6  3000               	movlw	0
  2296  02A7  00F8               	movwf	??___flge
  2297  02A8  3000               	movlw	0
  2298  02A9  00F9               	movwf	??___flge+1
  2299  02AA  3000               	movlw	0
  2300  02AB  00FA               	movwf	??___flge+2
  2301  02AC  3080               	movlw	128
  2302  02AD  00FB               	movwf	??___flge+3
  2303  02AE  0870               	movf	___flge@ff1,w
  2304  02AF  02F8               	subwf	??___flge,f
  2305  02B0  0871               	movf	___flge@ff1+1,w
  2306  02B1  1C03               	skipc
  2307  02B2  0F71               	incfsz	___flge@ff1+1,w
  2308  02B3  2AB5               	goto	u1381
  2309  02B4  2AB6               	goto	u1382
  2310  02B5                     u1381:
  2311  02B5  02F9               	subwf	??___flge+1,f
  2312  02B6                     u1382:
  2313  02B6  0872               	movf	___flge@ff1+2,w
  2314  02B7  1C03               	skipc
  2315  02B8  0F72               	incfsz	___flge@ff1+2,w
  2316  02B9  2ABB               	goto	u1383
  2317  02BA  2ABC               	goto	u1384
  2318  02BB                     u1383:
  2319  02BB  02FA               	subwf	??___flge+2,f
  2320  02BC                     u1384:
  2321  02BC  0873               	movf	___flge@ff1+3,w
  2322  02BD  1C03               	skipc
  2323  02BE  0F73               	incfsz	___flge@ff1+3,w
  2324  02BF  2AC1               	goto	u1385
  2325  02C0  2AC2               	goto	u1386
  2326  02C1                     u1385:
  2327  02C1  02FB               	subwf	??___flge+3,f
  2328  02C2                     u1386:
  2329  02C2  087B               	movf	??___flge+3,w
  2330  02C3  00F3               	movwf	___flge@ff1+3
  2331  02C4  087A               	movf	??___flge+2,w
  2332  02C5  00F2               	movwf	___flge@ff1+2
  2333  02C6  0879               	movf	??___flge+1,w
  2334  02C7  00F1               	movwf	___flge@ff1+1
  2335  02C8  0878               	movf	??___flge,w
  2336  02C9  00F0               	movwf	___flge@ff1
  2337  02CA                     l1547:
  2338  02CA  1FF7               	btfss	___flge@ff2+3,7
  2339  02CB  2ACD               	goto	u1391
  2340  02CC  2ACE               	goto	u1390
  2341  02CD                     u1391:
  2342  02CD  2AF2               	goto	l412
  2343  02CE                     u1390:
  2344  02CE                     l1549:
  2345  02CE  3000               	movlw	0
  2346  02CF  00F8               	movwf	??___flge
  2347  02D0  3000               	movlw	0
  2348  02D1  00F9               	movwf	??___flge+1
  2349  02D2  3000               	movlw	0
  2350  02D3  00FA               	movwf	??___flge+2
  2351  02D4  3080               	movlw	128
  2352  02D5  00FB               	movwf	??___flge+3
  2353  02D6  0874               	movf	___flge@ff2,w
  2354  02D7  02F8               	subwf	??___flge,f
  2355  02D8  0875               	movf	___flge@ff2+1,w
  2356  02D9  1C03               	skipc
  2357  02DA  0F75               	incfsz	___flge@ff2+1,w
  2358  02DB  2ADD               	goto	u1401
  2359  02DC  2ADE               	goto	u1402
  2360  02DD                     u1401:
  2361  02DD  02F9               	subwf	??___flge+1,f
  2362  02DE                     u1402:
  2363  02DE  0876               	movf	___flge@ff2+2,w
  2364  02DF  1C03               	skipc
  2365  02E0  0F76               	incfsz	___flge@ff2+2,w
  2366  02E1  2AE3               	goto	u1403
  2367  02E2  2AE4               	goto	u1404
  2368  02E3                     u1403:
  2369  02E3  02FA               	subwf	??___flge+2,f
  2370  02E4                     u1404:
  2371  02E4  0877               	movf	___flge@ff2+3,w
  2372  02E5  1C03               	skipc
  2373  02E6  0F77               	incfsz	___flge@ff2+3,w
  2374  02E7  2AE9               	goto	u1405
  2375  02E8  2AEA               	goto	u1406
  2376  02E9                     u1405:
  2377  02E9  02FB               	subwf	??___flge+3,f
  2378  02EA                     u1406:
  2379  02EA  087B               	movf	??___flge+3,w
  2380  02EB  00F7               	movwf	___flge@ff2+3
  2381  02EC  087A               	movf	??___flge+2,w
  2382  02ED  00F6               	movwf	___flge@ff2+2
  2383  02EE  0879               	movf	??___flge+1,w
  2384  02EF  00F5               	movwf	___flge@ff2+1
  2385  02F0  0878               	movf	??___flge,w
  2386  02F1  00F4               	movwf	___flge@ff2
  2387  02F2                     l412:
  2388  02F2  3080               	movlw	128
  2389  02F3  06F3               	xorwf	___flge@ff1+3,f
  2390  02F4  3080               	movlw	128
  2391  02F5  06F7               	xorwf	___flge@ff2+3,f
  2392  02F6  0877               	movf	___flge@ff2+3,w
  2393  02F7  0273               	subwf	___flge@ff1+3,w
  2394  02F8  1D03               	skipz
  2395  02F9  2B04               	goto	u1415
  2396  02FA  0876               	movf	___flge@ff2+2,w
  2397  02FB  0272               	subwf	___flge@ff1+2,w
  2398  02FC  1D03               	skipz
  2399  02FD  2B04               	goto	u1415
  2400  02FE  0875               	movf	___flge@ff2+1,w
  2401  02FF  0271               	subwf	___flge@ff1+1,w
  2402  0300  1D03               	skipz
  2403  0301  2B04               	goto	u1415
  2404  0302  0874               	movf	___flge@ff2,w
  2405  0303  0270               	subwf	___flge@ff1,w
  2406  0304                     u1415:
  2407  0304  1803               	skipnc
  2408  0305  2B07               	goto	u1411
  2409  0306  2B08               	goto	u1410
  2410  0307                     u1411:
  2411  0307  2B0A               	goto	l1553
  2412  0308                     u1410:
  2413  0308                     l1551:
  2414  0308  1003               	clrc
  2415  0309  2B0B               	goto	l413
  2416  030A                     l1553:
  2417  030A  1403               	setc
  2418  030B                     l413:
  2419  030B  0008               	return
  2420  030C                     __end_of___flge:
  2421                           
  2422                           	psect	text7
  2423  061F                     __ptext7:	
  2424 ;; *************** function ___fldiv *****************
  2425 ;; Defined at:
  2426 ;;		line 8 in file "/opt/microchip/xc8/v2.20/pic/sources/c90/common/sprcdiv.c"
  2427 ;; Parameters:    Size  Location     Type
  2428 ;;  a               4    0[BANK0 ] long 
  2429 ;;  b               4    4[BANK0 ] long 
  2430 ;; Auto vars:     Size  Location     Type
  2431 ;;  grs             4   20[BANK0 ] unsigned long 
  2432 ;;  rem             4   13[BANK0 ] unsigned long 
  2433 ;;  new_exp         2   18[BANK0 ] int 
  2434 ;;  aexp            1   25[BANK0 ] unsigned char 
  2435 ;;  bexp            1   24[BANK0 ] unsigned char 
  2436 ;;  sign            1   17[BANK0 ] unsigned char 
  2437 ;; Return value:  Size  Location     Type
  2438 ;;                  4    0[BANK0 ] unsigned char 
  2439 ;; Registers used:
  2440 ;;		wreg, status,2, status,0, btemp+1
  2441 ;; Tracked objects:
  2442 ;;		On entry : 0/0
  2443 ;;		On exit  : 0/0
  2444 ;;		Unchanged: 0/0
  2445 ;; Data sizes:     COMMON   BANK0   BANK1   BANK3   BANK2
  2446 ;;      Params:         0       8       0       0       0
  2447 ;;      Locals:         0      13       0       0       0
  2448 ;;      Temps:          0       5       0       0       0
  2449 ;;      Totals:         0      26       0       0       0
  2450 ;;Total ram usage:       26 bytes
  2451 ;; Hardware stack levels used:    1
  2452 ;; This function calls:
  2453 ;;		Nothing
  2454 ;; This function is called by:
  2455 ;;		_main
  2456 ;; This function uses a non-reentrant model
  2457 ;;
  2458                           
  2459                           
  2460                           ;psect for function ___fldiv
  2461  061F                     ___fldiv:
  2462  061F                     l1595:	
  2463                           ;incstack = 0
  2464                           ; Regs used in ___fldiv: [wreg+status,2+status,0+btemp+1]
  2465                           
  2466  061F  1283               	bcf	3,5	;RP0=0, select bank0
  2467  0620  1303               	bcf	3,6	;RP1=0, select bank0
  2468  0621  0827               	movf	___fldiv@b+3,w
  2469  0622  3980               	andlw	128
  2470  0623  00FF               	movwf	btemp+1
  2471  0624  087F               	movf	btemp+1,w
  2472  0625  00B1               	movwf	___fldiv@sign
  2473  0626                     l1597:
  2474  0626  0827               	movf	___fldiv@b+3,w
  2475  0627  00A8               	movwf	??___fldiv
  2476  0628  0728               	addwf	??___fldiv,w
  2477  0629  00FF               	movwf	btemp+1
  2478  062A  087F               	movf	btemp+1,w
  2479  062B  00B8               	movwf	___fldiv@bexp
  2480  062C                     l1599:
  2481  062C  1FA6               	btfss	___fldiv@b+2,7
  2482  062D  2E2F               	goto	u1521
  2483  062E  2E30               	goto	u1520
  2484  062F                     u1521:
  2485  062F  2E31               	goto	l1603
  2486  0630                     u1520:
  2487  0630                     l1601:
  2488  0630  1438               	bsf	___fldiv@bexp,0
  2489  0631                     l1603:
  2490  0631  0838               	movf	___fldiv@bexp,w
  2491  0632  1903               	btfsc	3,2
  2492  0633  2E35               	goto	u1531
  2493  0634  2E36               	goto	u1530
  2494  0635                     u1531:
  2495  0635  2E46               	goto	l1613
  2496  0636                     u1530:
  2497  0636                     l1605:
  2498  0636  0A38               	incf	___fldiv@bexp,w
  2499  0637  1D03               	btfss	3,2
  2500  0638  2E3A               	goto	u1541
  2501  0639  2E3B               	goto	u1540
  2502  063A                     u1541:
  2503  063A  2E43               	goto	l1609
  2504  063B                     u1540:
  2505  063B                     l1607:
  2506  063B  3000               	movlw	0
  2507  063C  00A7               	movwf	___fldiv@b+3
  2508  063D  3000               	movlw	0
  2509  063E  00A6               	movwf	___fldiv@b+2
  2510  063F  3000               	movlw	0
  2511  0640  00A5               	movwf	___fldiv@b+1
  2512  0641  3000               	movlw	0
  2513  0642  00A4               	movwf	___fldiv@b
  2514  0643                     l1609:
  2515  0643  17A6               	bsf	___fldiv@b+2,7
  2516  0644                     l1611:
  2517  0644  01A7               	clrf	___fldiv@b+3
  2518  0645  2E4E               	goto	l1615
  2519  0646                     l1613:
  2520  0646  3000               	movlw	0
  2521  0647  00A7               	movwf	___fldiv@b+3
  2522  0648  3000               	movlw	0
  2523  0649  00A6               	movwf	___fldiv@b+2
  2524  064A  3000               	movlw	0
  2525  064B  00A5               	movwf	___fldiv@b+1
  2526  064C  3000               	movlw	0
  2527  064D  00A4               	movwf	___fldiv@b
  2528  064E                     l1615:
  2529  064E  0823               	movf	___fldiv@a+3,w
  2530  064F  3980               	andlw	128
  2531  0650  00FF               	movwf	btemp+1
  2532  0651  087F               	movf	btemp+1,w
  2533  0652  06B1               	xorwf	___fldiv@sign,f
  2534  0653                     l1617:
  2535  0653  0823               	movf	___fldiv@a+3,w
  2536  0654  00A8               	movwf	??___fldiv
  2537  0655  0728               	addwf	??___fldiv,w
  2538  0656  00FF               	movwf	btemp+1
  2539  0657  087F               	movf	btemp+1,w
  2540  0658  00B9               	movwf	___fldiv@aexp
  2541  0659                     l1619:
  2542  0659  1FA2               	btfss	___fldiv@a+2,7
  2543  065A  2E5C               	goto	u1551
  2544  065B  2E5D               	goto	u1550
  2545  065C                     u1551:
  2546  065C  2E5E               	goto	l1623
  2547  065D                     u1550:
  2548  065D                     l1621:
  2549  065D  1439               	bsf	___fldiv@aexp,0
  2550  065E                     l1623:
  2551  065E  0839               	movf	___fldiv@aexp,w
  2552  065F  1903               	btfsc	3,2
  2553  0660  2E62               	goto	u1561
  2554  0661  2E63               	goto	u1560
  2555  0662                     u1561:
  2556  0662  2E73               	goto	l1633
  2557  0663                     u1560:
  2558  0663                     l1625:
  2559  0663  0A39               	incf	___fldiv@aexp,w
  2560  0664  1D03               	btfss	3,2
  2561  0665  2E67               	goto	u1571
  2562  0666  2E68               	goto	u1570
  2563  0667                     u1571:
  2564  0667  2E70               	goto	l1629
  2565  0668                     u1570:
  2566  0668                     l1627:
  2567  0668  3000               	movlw	0
  2568  0669  00A3               	movwf	___fldiv@a+3
  2569  066A  3000               	movlw	0
  2570  066B  00A2               	movwf	___fldiv@a+2
  2571  066C  3000               	movlw	0
  2572  066D  00A1               	movwf	___fldiv@a+1
  2573  066E  3000               	movlw	0
  2574  066F  00A0               	movwf	___fldiv@a
  2575  0670                     l1629:
  2576  0670  17A2               	bsf	___fldiv@a+2,7
  2577  0671                     l1631:
  2578  0671  01A3               	clrf	___fldiv@a+3
  2579  0672  2E7B               	goto	l584
  2580  0673                     l1633:
  2581  0673  3000               	movlw	0
  2582  0674  00A3               	movwf	___fldiv@a+3
  2583  0675  3000               	movlw	0
  2584  0676  00A2               	movwf	___fldiv@a+2
  2585  0677  3000               	movlw	0
  2586  0678  00A1               	movwf	___fldiv@a+1
  2587  0679  3000               	movlw	0
  2588  067A  00A0               	movwf	___fldiv@a
  2589  067B                     l584:
  2590  067B  0823               	movf	___fldiv@a+3,w
  2591  067C  0422               	iorwf	___fldiv@a+2,w
  2592  067D  0421               	iorwf	___fldiv@a+1,w
  2593  067E  0420               	iorwf	___fldiv@a,w
  2594  067F  1D03               	skipz
  2595  0680  2E82               	goto	u1581
  2596  0681  2E83               	goto	u1580
  2597  0682                     u1581:
  2598  0682  2E9C               	goto	l1643
  2599  0683                     u1580:
  2600  0683                     l1635:
  2601  0683  3000               	movlw	0
  2602  0684  00A7               	movwf	___fldiv@b+3
  2603  0685  3000               	movlw	0
  2604  0686  00A6               	movwf	___fldiv@b+2
  2605  0687  3000               	movlw	0
  2606  0688  00A5               	movwf	___fldiv@b+1
  2607  0689  3000               	movlw	0
  2608  068A  00A4               	movwf	___fldiv@b
  2609  068B  3080               	movlw	128
  2610  068C  04A6               	iorwf	___fldiv@b+2,f
  2611  068D  307F               	movlw	127
  2612  068E  04A7               	iorwf	___fldiv@b+3,f
  2613  068F                     l1637:
  2614  068F  0831               	movf	___fldiv@sign,w
  2615  0690  00FF               	movwf	btemp+1
  2616  0691  087F               	movf	btemp+1,w
  2617  0692  04A7               	iorwf	___fldiv@b+3,f
  2618  0693                     l1639:
  2619  0693  0827               	movf	___fldiv@b+3,w
  2620  0694  00A3               	movwf	?___fldiv+3
  2621  0695  0826               	movf	___fldiv@b+2,w
  2622  0696  00A2               	movwf	?___fldiv+2
  2623  0697  0825               	movf	___fldiv@b+1,w
  2624  0698  00A1               	movwf	?___fldiv+1
  2625  0699  0824               	movf	___fldiv@b,w
  2626  069A  00A0               	movwf	?___fldiv
  2627  069B  2FFB               	goto	l586
  2628  069C                     l1643:
  2629  069C  0838               	movf	___fldiv@bexp,w
  2630  069D  1D03               	btfss	3,2
  2631  069E  2EA0               	goto	u1591
  2632  069F  2EA1               	goto	u1590
  2633  06A0                     u1591:
  2634  06A0  2EAA               	goto	l1649
  2635  06A1                     u1590:
  2636  06A1                     l1645:
  2637  06A1  3000               	movlw	0
  2638  06A2  00A3               	movwf	?___fldiv+3
  2639  06A3  3000               	movlw	0
  2640  06A4  00A2               	movwf	?___fldiv+2
  2641  06A5  3000               	movlw	0
  2642  06A6  00A1               	movwf	?___fldiv+1
  2643  06A7  3000               	movlw	0
  2644  06A8  00A0               	movwf	?___fldiv
  2645  06A9  2FFB               	goto	l586
  2646  06AA                     l1649:
  2647  06AA  0838               	movf	___fldiv@bexp,w
  2648  06AB  00A8               	movwf	??___fldiv
  2649  06AC  01A9               	clrf	??___fldiv+1
  2650  06AD  0829               	movf	??___fldiv+1,w
  2651  06AE  00AB               	movwf	??___fldiv+3
  2652  06AF  0839               	movf	___fldiv@aexp,w
  2653  06B0  0228               	subwf	??___fldiv,w
  2654  06B1  00AA               	movwf	??___fldiv+2
  2655  06B2  1C03               	skipc
  2656  06B3  03AB               	decf	??___fldiv+3,f
  2657  06B4  082A               	movf	??___fldiv+2,w
  2658  06B5  3E7F               	addlw	127
  2659  06B6  00B2               	movwf	___fldiv@new_exp
  2660  06B7  082B               	movf	??___fldiv+3,w
  2661  06B8  1803               	skipnc
  2662  06B9  3E01               	addlw	1
  2663  06BA  3E00               	addlw	0
  2664  06BB  00B3               	movwf	___fldiv@new_exp+1
  2665  06BC                     l1651:
  2666  06BC  0827               	movf	___fldiv@b+3,w
  2667  06BD  00B0               	movwf	___fldiv@rem+3
  2668  06BE  0826               	movf	___fldiv@b+2,w
  2669  06BF  00AF               	movwf	___fldiv@rem+2
  2670  06C0  0825               	movf	___fldiv@b+1,w
  2671  06C1  00AE               	movwf	___fldiv@rem+1
  2672  06C2  0824               	movf	___fldiv@b,w
  2673  06C3  00AD               	movwf	___fldiv@rem
  2674  06C4                     l1653:
  2675  06C4  3000               	movlw	0
  2676  06C5  00A7               	movwf	___fldiv@b+3
  2677  06C6  3000               	movlw	0
  2678  06C7  00A6               	movwf	___fldiv@b+2
  2679  06C8  3000               	movlw	0
  2680  06C9  00A5               	movwf	___fldiv@b+1
  2681  06CA  3000               	movlw	0
  2682  06CB  00A4               	movwf	___fldiv@b
  2683  06CC                     l1655:
  2684  06CC  3000               	movlw	0
  2685  06CD  00B7               	movwf	___fldiv@grs+3
  2686  06CE  3000               	movlw	0
  2687  06CF  00B6               	movwf	___fldiv@grs+2
  2688  06D0  3000               	movlw	0
  2689  06D1  00B5               	movwf	___fldiv@grs+1
  2690  06D2  3000               	movlw	0
  2691  06D3  00B4               	movwf	___fldiv@grs
  2692  06D4                     l1657:
  2693  06D4  01B9               	clrf	___fldiv@aexp
  2694  06D5  2F20               	goto	l1677
  2695  06D6                     l1659:
  2696  06D6  0839               	movf	___fldiv@aexp,w
  2697  06D7  1903               	btfsc	3,2
  2698  06D8  2EDA               	goto	u1601
  2699  06D9  2EDB               	goto	u1600
  2700  06DA                     u1601:
  2701  06DA  2EFB               	goto	l1669
  2702  06DB                     u1600:
  2703  06DB                     l1661:
  2704  06DB  3001               	movlw	1
  2705  06DC  00A8               	movwf	??___fldiv
  2706  06DD                     u1615:
  2707  06DD  1003               	clrc
  2708  06DE  0DAD               	rlf	___fldiv@rem,f
  2709  06DF  0DAE               	rlf	___fldiv@rem+1,f
  2710  06E0  0DAF               	rlf	___fldiv@rem+2,f
  2711  06E1  0DB0               	rlf	___fldiv@rem+3,f
  2712  06E2  0BA8               	decfsz	??___fldiv,f
  2713  06E3  2EDD               	goto	u1615
  2714  06E4  3001               	movlw	1
  2715  06E5  00A8               	movwf	??___fldiv
  2716  06E6                     u1625:
  2717  06E6  1003               	clrc
  2718  06E7  0DA4               	rlf	___fldiv@b,f
  2719  06E8  0DA5               	rlf	___fldiv@b+1,f
  2720  06E9  0DA6               	rlf	___fldiv@b+2,f
  2721  06EA  0DA7               	rlf	___fldiv@b+3,f
  2722  06EB  0BA8               	decfsz	??___fldiv,f
  2723  06EC  2EE6               	goto	u1625
  2724  06ED                     l1663:
  2725  06ED  1FB7               	btfss	___fldiv@grs+3,7
  2726  06EE  2EF0               	goto	u1631
  2727  06EF  2EF1               	goto	u1630
  2728  06F0                     u1631:
  2729  06F0  2EF2               	goto	l1667
  2730  06F1                     u1630:
  2731  06F1                     l1665:
  2732  06F1  1424               	bsf	___fldiv@b,0
  2733  06F2                     l1667:
  2734  06F2  3001               	movlw	1
  2735  06F3  00A8               	movwf	??___fldiv
  2736  06F4                     u1645:
  2737  06F4  1003               	clrc
  2738  06F5  0DB4               	rlf	___fldiv@grs,f
  2739  06F6  0DB5               	rlf	___fldiv@grs+1,f
  2740  06F7  0DB6               	rlf	___fldiv@grs+2,f
  2741  06F8  0DB7               	rlf	___fldiv@grs+3,f
  2742  06F9  0BA8               	decfsz	??___fldiv,f
  2743  06FA  2EF4               	goto	u1645
  2744  06FB                     l1669:
  2745  06FB  0823               	movf	___fldiv@a+3,w
  2746  06FC  0230               	subwf	___fldiv@rem+3,w
  2747  06FD  1D03               	skipz
  2748  06FE  2F09               	goto	u1655
  2749  06FF  0822               	movf	___fldiv@a+2,w
  2750  0700  022F               	subwf	___fldiv@rem+2,w
  2751  0701  1D03               	skipz
  2752  0702  2F09               	goto	u1655
  2753  0703  0821               	movf	___fldiv@a+1,w
  2754  0704  022E               	subwf	___fldiv@rem+1,w
  2755  0705  1D03               	skipz
  2756  0706  2F09               	goto	u1655
  2757  0707  0820               	movf	___fldiv@a,w
  2758  0708  022D               	subwf	___fldiv@rem,w
  2759  0709                     u1655:
  2760  0709  1C03               	skipc
  2761  070A  2F0C               	goto	u1651
  2762  070B  2F0D               	goto	u1650
  2763  070C                     u1651:
  2764  070C  2F1C               	goto	l1675
  2765  070D                     u1650:
  2766  070D                     l1671:
  2767  070D  1737               	bsf	___fldiv@grs+3,6
  2768  070E                     l1673:
  2769  070E  0820               	movf	___fldiv@a,w
  2770  070F  02AD               	subwf	___fldiv@rem,f
  2771  0710  0821               	movf	___fldiv@a+1,w
  2772  0711  1C03               	skipc
  2773  0712  0F21               	incfsz	___fldiv@a+1,w
  2774  0713  02AE               	subwf	___fldiv@rem+1,f
  2775  0714  0822               	movf	___fldiv@a+2,w
  2776  0715  1C03               	skipc
  2777  0716  0F22               	incfsz	___fldiv@a+2,w
  2778  0717  02AF               	subwf	___fldiv@rem+2,f
  2779  0718  0823               	movf	___fldiv@a+3,w
  2780  0719  1C03               	skipc
  2781  071A  0F23               	incfsz	___fldiv@a+3,w
  2782  071B  02B0               	subwf	___fldiv@rem+3,f
  2783  071C                     l1675:
  2784  071C  3001               	movlw	1
  2785  071D  00FF               	movwf	btemp+1
  2786  071E  087F               	movf	btemp+1,w
  2787  071F  07B9               	addwf	___fldiv@aexp,f
  2788  0720                     l1677:
  2789  0720  301A               	movlw	26
  2790  0721  0239               	subwf	___fldiv@aexp,w
  2791  0722  1C03               	skipc
  2792  0723  2F25               	goto	u1661
  2793  0724  2F26               	goto	u1660
  2794  0725                     u1661:
  2795  0725  2ED6               	goto	l1659
  2796  0726                     u1660:
  2797  0726                     l1679:
  2798  0726  0830               	movf	___fldiv@rem+3,w
  2799  0727  042F               	iorwf	___fldiv@rem+2,w
  2800  0728  042E               	iorwf	___fldiv@rem+1,w
  2801  0729  042D               	iorwf	___fldiv@rem,w
  2802  072A  1903               	skipnz
  2803  072B  2F2D               	goto	u1671
  2804  072C  2F2E               	goto	u1670
  2805  072D                     u1671:
  2806  072D  2F4D               	goto	l1693
  2807  072E                     u1670:
  2808  072E                     l1681:
  2809  072E  1434               	bsf	___fldiv@grs,0
  2810  072F  2F4D               	goto	l1693
  2811  0730                     l1683:
  2812  0730  3001               	movlw	1
  2813  0731  00A8               	movwf	??___fldiv
  2814  0732                     u1685:
  2815  0732  1003               	clrc
  2816  0733  0DA4               	rlf	___fldiv@b,f
  2817  0734  0DA5               	rlf	___fldiv@b+1,f
  2818  0735  0DA6               	rlf	___fldiv@b+2,f
  2819  0736  0DA7               	rlf	___fldiv@b+3,f
  2820  0737  0BA8               	decfsz	??___fldiv,f
  2821  0738  2F32               	goto	u1685
  2822  0739                     l1685:
  2823  0739  1FB7               	btfss	___fldiv@grs+3,7
  2824  073A  2F3C               	goto	u1691
  2825  073B  2F3D               	goto	u1690
  2826  073C                     u1691:
  2827  073C  2F3E               	goto	l1689
  2828  073D                     u1690:
  2829  073D                     l1687:
  2830  073D  1424               	bsf	___fldiv@b,0
  2831  073E                     l1689:
  2832  073E  3001               	movlw	1
  2833  073F  00A8               	movwf	??___fldiv
  2834  0740                     u1705:
  2835  0740  1003               	clrc
  2836  0741  0DB4               	rlf	___fldiv@grs,f
  2837  0742  0DB5               	rlf	___fldiv@grs+1,f
  2838  0743  0DB6               	rlf	___fldiv@grs+2,f
  2839  0744  0DB7               	rlf	___fldiv@grs+3,f
  2840  0745  0BA8               	decfsz	??___fldiv,f
  2841  0746  2F40               	goto	u1705
  2842  0747                     l1691:
  2843  0747  30FF               	movlw	255
  2844  0748  07B2               	addwf	___fldiv@new_exp,f
  2845  0749  1803               	skipnc
  2846  074A  0AB3               	incf	___fldiv@new_exp+1,f
  2847  074B  30FF               	movlw	255
  2848  074C  07B3               	addwf	___fldiv@new_exp+1,f
  2849  074D                     l1693:
  2850  074D  1FA6               	btfss	___fldiv@b+2,7
  2851  074E  2F50               	goto	u1711
  2852  074F  2F51               	goto	u1710
  2853  0750                     u1711:
  2854  0750  2F30               	goto	l1683
  2855  0751                     u1710:
  2856  0751                     l1695:
  2857  0751  01B9               	clrf	___fldiv@aexp
  2858  0752                     l1697:
  2859  0752  1FB7               	btfss	___fldiv@grs+3,7
  2860  0753  2F55               	goto	u1721
  2861  0754  2F56               	goto	u1720
  2862  0755                     u1721:
  2863  0755  2F72               	goto	l1705
  2864  0756                     u1720:
  2865  0756                     l1699:
  2866  0756  30FF               	movlw	255
  2867  0757  0534               	andwf	___fldiv@grs,w
  2868  0758  00A8               	movwf	??___fldiv
  2869  0759  30FF               	movlw	255
  2870  075A  0535               	andwf	___fldiv@grs+1,w
  2871  075B  00A9               	movwf	??___fldiv+1
  2872  075C  30FF               	movlw	255
  2873  075D  0536               	andwf	___fldiv@grs+2,w
  2874  075E  00AA               	movwf	??___fldiv+2
  2875  075F  307F               	movlw	127
  2876  0760  0537               	andwf	___fldiv@grs+3,w
  2877  0761  00AB               	movwf	??___fldiv+3
  2878  0762  082B               	movf	??___fldiv+3,w
  2879  0763  042A               	iorwf	??___fldiv+2,w
  2880  0764  0429               	iorwf	??___fldiv+1,w
  2881  0765  0428               	iorwf	??___fldiv,w
  2882  0766  1903               	skipnz
  2883  0767  2F69               	goto	u1731
  2884  0768  2F6A               	goto	u1730
  2885  0769                     u1731:
  2886  0769  2F6D               	goto	l600
  2887  076A                     u1730:
  2888  076A                     l1701:
  2889  076A  01B9               	clrf	___fldiv@aexp
  2890  076B  0AB9               	incf	___fldiv@aexp,f
  2891  076C  2F72               	goto	l1705
  2892  076D                     l600:
  2893  076D  1C24               	btfss	___fldiv@b,0
  2894  076E  2F70               	goto	u1741
  2895  076F  2F71               	goto	u1740
  2896  0770                     u1741:
  2897  0770  2F72               	goto	l1705
  2898  0771                     u1740:
  2899  0771  2F6A               	goto	l1701
  2900  0772                     l1705:
  2901  0772  0839               	movf	___fldiv@aexp,w
  2902  0773  1903               	btfsc	3,2
  2903  0774  2F76               	goto	u1751
  2904  0775  2F77               	goto	u1750
  2905  0776                     u1751:
  2906  0776  2FA8               	goto	l1715
  2907  0777                     u1750:
  2908  0777                     l1707:
  2909  0777  3001               	movlw	1
  2910  0778  07A4               	addwf	___fldiv@b,f
  2911  0779  3000               	movlw	0
  2912  077A  1803               	skipnc
  2913  077B  3001               	movlw	1
  2914  077C  07A5               	addwf	___fldiv@b+1,f
  2915  077D  3000               	movlw	0
  2916  077E  1803               	skipnc
  2917  077F  3001               	movlw	1
  2918  0780  07A6               	addwf	___fldiv@b+2,f
  2919  0781  3000               	movlw	0
  2920  0782  1803               	skipnc
  2921  0783  3001               	movlw	1
  2922  0784  07A7               	addwf	___fldiv@b+3,f
  2923  0785                     l1709:
  2924  0785  1C27               	btfss	___fldiv@b+3,0
  2925  0786  2F88               	goto	u1761
  2926  0787  2F89               	goto	u1760
  2927  0788                     u1761:
  2928  0788  2FA8               	goto	l1715
  2929  0789                     u1760:
  2930  0789                     l1711:
  2931  0789  0824               	movf	___fldiv@b,w
  2932  078A  00A8               	movwf	??___fldiv
  2933  078B  0825               	movf	___fldiv@b+1,w
  2934  078C  00A9               	movwf	??___fldiv+1
  2935  078D  0826               	movf	___fldiv@b+2,w
  2936  078E  00AA               	movwf	??___fldiv+2
  2937  078F  0827               	movf	___fldiv@b+3,w
  2938  0790  00AB               	movwf	??___fldiv+3
  2939  0791  3001               	movlw	1
  2940  0792  00AC               	movwf	??___fldiv+4
  2941  0793                     u1775:
  2942  0793  0D2B               	rlf	??___fldiv+3,w
  2943  0794  0CAB               	rrf	??___fldiv+3,f
  2944  0795  0CAA               	rrf	??___fldiv+2,f
  2945  0796  0CA9               	rrf	??___fldiv+1,f
  2946  0797  0CA8               	rrf	??___fldiv,f
  2947  0798                     u1770:
  2948  0798  0BAC               	decfsz	??___fldiv+4,f
  2949  0799  2F93               	goto	u1775
  2950  079A  082B               	movf	??___fldiv+3,w
  2951  079B  00A7               	movwf	___fldiv@b+3
  2952  079C  082A               	movf	??___fldiv+2,w
  2953  079D  00A6               	movwf	___fldiv@b+2
  2954  079E  0829               	movf	??___fldiv+1,w
  2955  079F  00A5               	movwf	___fldiv@b+1
  2956  07A0  0828               	movf	??___fldiv,w
  2957  07A1  00A4               	movwf	___fldiv@b
  2958  07A2                     l1713:
  2959  07A2  3001               	movlw	1
  2960  07A3  07B2               	addwf	___fldiv@new_exp,f
  2961  07A4  1803               	skipnc
  2962  07A5  0AB3               	incf	___fldiv@new_exp+1,f
  2963  07A6  3000               	movlw	0
  2964  07A7  07B3               	addwf	___fldiv@new_exp+1,f
  2965  07A8                     l1715:
  2966  07A8  0833               	movf	___fldiv@new_exp+1,w
  2967  07A9  3A80               	xorlw	128
  2968  07AA  00FF               	movwf	btemp+1
  2969  07AB  3080               	movlw	128
  2970  07AC  027F               	subwf	btemp+1,w
  2971  07AD  1D03               	skipz
  2972  07AE  2FB1               	goto	u1785
  2973  07AF  30FF               	movlw	255
  2974  07B0  0232               	subwf	___fldiv@new_exp,w
  2975  07B1                     u1785:
  2976  07B1  1C03               	skipc
  2977  07B2  2FB4               	goto	u1781
  2978  07B3  2FB5               	goto	u1780
  2979  07B4                     u1781:
  2980  07B4  2FC3               	goto	l1719
  2981  07B5                     u1780:
  2982  07B5                     l1717:
  2983  07B5  30FF               	movlw	255
  2984  07B6  1283               	bcf	3,5	;RP0=0, select bank0
  2985  07B7  1303               	bcf	3,6	;RP1=0, select bank0
  2986  07B8  00B2               	movwf	___fldiv@new_exp
  2987  07B9  3000               	movlw	0
  2988  07BA  00B3               	movwf	___fldiv@new_exp+1
  2989  07BB  3000               	movlw	0
  2990  07BC  00A7               	movwf	___fldiv@b+3
  2991  07BD  3000               	movlw	0
  2992  07BE  00A6               	movwf	___fldiv@b+2
  2993  07BF  3000               	movlw	0
  2994  07C0  00A5               	movwf	___fldiv@b+1
  2995  07C1  3000               	movlw	0
  2996  07C2  00A4               	movwf	___fldiv@b
  2997  07C3                     l1719:
  2998  07C3  1283               	bcf	3,5	;RP0=0, select bank0
  2999  07C4  1303               	bcf	3,6	;RP1=0, select bank0
  3000  07C5  0833               	movf	___fldiv@new_exp+1,w
  3001  07C6  3A80               	xorlw	128
  3002  07C7  00FF               	movwf	btemp+1
  3003  07C8  3080               	movlw	128
  3004  07C9  027F               	subwf	btemp+1,w
  3005  07CA  1D03               	skipz
  3006  07CB  2FCE               	goto	u1795
  3007  07CC  3001               	movlw	1
  3008  07CD  0232               	subwf	___fldiv@new_exp,w
  3009  07CE                     u1795:
  3010  07CE  1803               	skipnc
  3011  07CF  2FD1               	goto	u1791
  3012  07D0  2FD2               	goto	u1790
  3013  07D1                     u1791:
  3014  07D1  2FDF               	goto	l1727
  3015  07D2                     u1790:
  3016  07D2                     l1721:
  3017  07D2  1283               	bcf	3,5	;RP0=0, select bank0
  3018  07D3  1303               	bcf	3,6	;RP1=0, select bank0
  3019  07D4  01B2               	clrf	___fldiv@new_exp
  3020  07D5  01B3               	clrf	___fldiv@new_exp+1
  3021  07D6                     l1723:
  3022  07D6  3000               	movlw	0
  3023  07D7  00A7               	movwf	___fldiv@b+3
  3024  07D8  3000               	movlw	0
  3025  07D9  00A6               	movwf	___fldiv@b+2
  3026  07DA  3000               	movlw	0
  3027  07DB  00A5               	movwf	___fldiv@b+1
  3028  07DC  3000               	movlw	0
  3029  07DD  00A4               	movwf	___fldiv@b
  3030  07DE                     l1725:
  3031  07DE  01B1               	clrf	___fldiv@sign
  3032  07DF                     l1727:
  3033  07DF  1283               	bcf	3,5	;RP0=0, select bank0
  3034  07E0  1303               	bcf	3,6	;RP1=0, select bank0
  3035  07E1  0832               	movf	___fldiv@new_exp,w
  3036  07E2  00FF               	movwf	btemp+1
  3037  07E3  087F               	movf	btemp+1,w
  3038  07E4  00B8               	movwf	___fldiv@bexp
  3039  07E5                     l1729:
  3040  07E5  1C38               	btfss	___fldiv@bexp,0
  3041  07E6  2FE8               	goto	u1801
  3042  07E7  2FE9               	goto	u1800
  3043  07E8                     u1801:
  3044  07E8  2FEB               	goto	l1733
  3045  07E9                     u1800:
  3046  07E9                     l1731:
  3047  07E9  17A6               	bsf	___fldiv@b+2,7
  3048  07EA  2FEF               	goto	l608
  3049  07EB                     l1733:
  3050  07EB  307F               	movlw	127
  3051  07EC  00FF               	movwf	btemp+1
  3052  07ED  087F               	movf	btemp+1,w
  3053  07EE  05A6               	andwf	___fldiv@b+2,f
  3054  07EF                     l608:
  3055  07EF  0838               	movf	___fldiv@bexp,w
  3056  07F0  00A8               	movwf	??___fldiv
  3057  07F1  1003               	clrc
  3058  07F2  0C28               	rrf	??___fldiv,w
  3059  07F3  00FF               	movwf	btemp+1
  3060  07F4  087F               	movf	btemp+1,w
  3061  07F5  00A7               	movwf	___fldiv@b+3
  3062  07F6  0831               	movf	___fldiv@sign,w
  3063  07F7  00FF               	movwf	btemp+1
  3064  07F8  087F               	movf	btemp+1,w
  3065  07F9  04A7               	iorwf	___fldiv@b+3,f
  3066  07FA  2E93               	goto	l1639
  3067  07FB                     l586:
  3068  07FB  0008               	return
  3069  07FC                     __end_of___fldiv:
  3070                           
  3071                           	psect	text8
  3072  0FA3                     __ptext8:	
  3073 ;; *************** function _PowerOnPump *****************
  3074 ;; Defined at:
  3075 ;;		line 25 in file "main.c"
  3076 ;; Parameters:    Size  Location     Type
  3077 ;;		None
  3078 ;; Auto vars:     Size  Location     Type
  3079 ;;		None
  3080 ;; Return value:  Size  Location     Type
  3081 ;;                  1    wreg      void 
  3082 ;; Registers used:
  3083 ;;		None
  3084 ;; Tracked objects:
  3085 ;;		On entry : 0/0
  3086 ;;		On exit  : 0/0
  3087 ;;		Unchanged: 0/0
  3088 ;; Data sizes:     COMMON   BANK0   BANK1   BANK3   BANK2
  3089 ;;      Params:         0       0       0       0       0
  3090 ;;      Locals:         0       0       0       0       0
  3091 ;;      Temps:          0       0       0       0       0
  3092 ;;      Totals:         0       0       0       0       0
  3093 ;;Total ram usage:        0 bytes
  3094 ;; Hardware stack levels used:    1
  3095 ;; This function calls:
  3096 ;;		Nothing
  3097 ;; This function is called by:
  3098 ;;		_main
  3099 ;; This function uses a non-reentrant model
  3100 ;;
  3101                           
  3102                           
  3103                           ;psect for function _PowerOnPump
  3104  0FA3                     _PowerOnPump:
  3105  0FA3                     l1393:	
  3106                           ;incstack = 0
  3107                           ; Regs used in _PowerOnPump: []
  3108                           
  3109                           
  3110                           ;main.c: 26: PORTCbits.RC0 = 1;
  3111  0FA3  1283               	bcf	3,5	;RP0=0, select bank0
  3112  0FA4  1303               	bcf	3,6	;RP1=0, select bank0
  3113  0FA5  1407               	bsf	7,0	;volatile
  3114  0FA6                     l27:
  3115  0FA6  0008               	return
  3116  0FA7                     __end_of_PowerOnPump:
  3117                           
  3118                           	psect	text9
  3119  0F9F                     __ptext9:	
  3120 ;; *************** function _PowerOffPump *****************
  3121 ;; Defined at:
  3122 ;;		line 29 in file "main.c"
  3123 ;; Parameters:    Size  Location     Type
  3124 ;;		None
  3125 ;; Auto vars:     Size  Location     Type
  3126 ;;		None
  3127 ;; Return value:  Size  Location     Type
  3128 ;;                  1    wreg      void 
  3129 ;; Registers used:
  3130 ;;		None
  3131 ;; Tracked objects:
  3132 ;;		On entry : 0/0
  3133 ;;		On exit  : 0/0
  3134 ;;		Unchanged: 0/0
  3135 ;; Data sizes:     COMMON   BANK0   BANK1   BANK3   BANK2
  3136 ;;      Params:         0       0       0       0       0
  3137 ;;      Locals:         0       0       0       0       0
  3138 ;;      Temps:          0       0       0       0       0
  3139 ;;      Totals:         0       0       0       0       0
  3140 ;;Total ram usage:        0 bytes
  3141 ;; Hardware stack levels used:    1
  3142 ;; This function calls:
  3143 ;;		Nothing
  3144 ;; This function is called by:
  3145 ;;		_main
  3146 ;; This function uses a non-reentrant model
  3147 ;;
  3148                           
  3149                           
  3150                           ;psect for function _PowerOffPump
  3151  0F9F                     _PowerOffPump:
  3152  0F9F                     l1395:	
  3153                           ;incstack = 0
  3154                           ; Regs used in _PowerOffPump: []
  3155                           
  3156                           
  3157                           ;main.c: 30: PORTCbits.RC0 = 0;
  3158  0F9F  1283               	bcf	3,5	;RP0=0, select bank0
  3159  0FA0  1303               	bcf	3,6	;RP1=0, select bank0
  3160  0FA1  1007               	bcf	7,0	;volatile
  3161  0FA2                     l30:
  3162  0FA2  0008               	return
  3163  0FA3                     __end_of_PowerOffPump:
  3164                           
  3165                           	psect	text10
  3166  013C                     __ptext10:	
  3167 ;; *************** function _Lcd_Start *****************
  3168 ;; Defined at:
  3169 ;;		line 65 in file "lcd.c"
  3170 ;; Parameters:    Size  Location     Type
  3171 ;;		None
  3172 ;; Auto vars:     Size  Location     Type
  3173 ;;  i               2    0        int 
  3174 ;; Return value:  Size  Location     Type
  3175 ;;                  1    wreg      void 
  3176 ;; Registers used:
  3177 ;;		wreg, status,2, status,0, pclath, cstack
  3178 ;; Tracked objects:
  3179 ;;		On entry : 0/0
  3180 ;;		On exit  : 0/0
  3181 ;;		Unchanged: 0/0
  3182 ;; Data sizes:     COMMON   BANK0   BANK1   BANK3   BANK2
  3183 ;;      Params:         0       0       0       0       0
  3184 ;;      Locals:         2       0       0       0       0
  3185 ;;      Temps:          2       0       0       0       0
  3186 ;;      Totals:         4       0       0       0       0
  3187 ;;Total ram usage:        4 bytes
  3188 ;; Hardware stack levels used:    1
  3189 ;; Hardware stack levels required when called:    2
  3190 ;; This function calls:
  3191 ;;		_Lcd_Cmd
  3192 ;;		_Lcd_SetBit
  3193 ;; This function is called by:
  3194 ;;		_main
  3195 ;; This function uses a non-reentrant model
  3196 ;;
  3197                           
  3198                           
  3199                           ;psect for function _Lcd_Start
  3200  013C                     _Lcd_Start:
  3201  013C                     l1399:	
  3202                           ;incstack = 0
  3203                           ; Regs used in _Lcd_Start: [wreg+status,2+status,0+pclath+cstack]
  3204                           
  3205                           
  3206                           ;lcd.c: 67: Lcd_SetBit(0x00);
  3207  013C  3000               	movlw	0
  3208  013D  120A  158A  27DE  120A  118A  	fcall	_Lcd_SetBit
  3209  0142                     l1401:
  3210  0142                     l1403:
  3211  0142                     l1411:
  3212                           
  3213                           ;lcd.c: 69: Lcd_Cmd(0x03);
  3214  0142  3003               	movlw	3
  3215  0143  120A  118A  2027  120A  118A  	fcall	_Lcd_Cmd
  3216  0148                     l1413:
  3217                           
  3218                           ;lcd.c: 70: _delay((unsigned long)((5)*(20000000/4000.0)));
  3219  0148  3021               	movlw	33
  3220  0149  00F5               	movwf	??_Lcd_Start+1
  3221  014A  3076               	movlw	118
  3222  014B  00F4               	movwf	??_Lcd_Start
  3223  014C                     u2027:
  3224  014C  0BF4               	decfsz	??_Lcd_Start,f
  3225  014D  294C               	goto	u2027
  3226  014E  0BF5               	decfsz	??_Lcd_Start+1,f
  3227  014F  294C               	goto	u2027
  3228  0150  0000               	nop
  3229  0151                     l1415:
  3230                           
  3231                           ;lcd.c: 71: Lcd_Cmd(0x03);
  3232  0151  3003               	movlw	3
  3233  0152  120A  118A  2027  120A  118A  	fcall	_Lcd_Cmd
  3234                           
  3235                           ;lcd.c: 72: _delay((unsigned long)((11)*(20000000/4000.0)));
  3236  0157  3048               	movlw	72
  3237  0158  00F5               	movwf	??_Lcd_Start+1
  3238  0159  306C               	movlw	108
  3239  015A  00F4               	movwf	??_Lcd_Start
  3240  015B                     u2037:
  3241  015B  0BF4               	decfsz	??_Lcd_Start,f
  3242  015C  295B               	goto	u2037
  3243  015D  0BF5               	decfsz	??_Lcd_Start+1,f
  3244  015E  295B               	goto	u2037
  3245  015F  0000               	nop
  3246  0160                     l1417:
  3247                           
  3248                           ;lcd.c: 73: Lcd_Cmd(0x03);
  3249  0160  3003               	movlw	3
  3250  0161  120A  118A  2027  120A  118A  	fcall	_Lcd_Cmd
  3251  0166                     l1419:
  3252                           
  3253                           ;lcd.c: 74: Lcd_Cmd(0x02);
  3254  0166  3002               	movlw	2
  3255  0167  120A  118A  2027  120A  118A  	fcall	_Lcd_Cmd
  3256  016C                     l1421:
  3257                           
  3258                           ;lcd.c: 75: Lcd_Cmd(0x02);
  3259  016C  3002               	movlw	2
  3260  016D  120A  118A  2027  120A  118A  	fcall	_Lcd_Cmd
  3261  0172                     l1423:
  3262                           
  3263                           ;lcd.c: 76: Lcd_Cmd(0x08);
  3264  0172  3008               	movlw	8
  3265  0173  120A  118A  2027  120A  118A  	fcall	_Lcd_Cmd
  3266  0178                     l1425:
  3267                           
  3268                           ;lcd.c: 77: Lcd_Cmd(0x00);
  3269  0178  3000               	movlw	0
  3270  0179  120A  118A  2027  120A  118A  	fcall	_Lcd_Cmd
  3271  017E                     l1427:
  3272                           
  3273                           ;lcd.c: 78: Lcd_Cmd(0x0C);
  3274  017E  300C               	movlw	12
  3275  017F  120A  118A  2027  120A  118A  	fcall	_Lcd_Cmd
  3276  0184                     l1429:
  3277                           
  3278                           ;lcd.c: 79: Lcd_Cmd(0x00);
  3279  0184  3000               	movlw	0
  3280  0185  120A  118A  2027  120A  118A  	fcall	_Lcd_Cmd
  3281  018A                     l1431:
  3282                           
  3283                           ;lcd.c: 80: Lcd_Cmd(0x06);
  3284  018A  3006               	movlw	6
  3285  018B  120A  118A  2027  120A  118A  	fcall	_Lcd_Cmd
  3286  0190                     l87:
  3287  0190  0008               	return
  3288  0191                     __end_of_Lcd_Start:
  3289                           
  3290                           	psect	text11
  3291  00EA                     __ptext11:	
  3292 ;; *************** function _Lcd_Set_Cursor *****************
  3293 ;; Defined at:
  3294 ;;		line 44 in file "lcd.c"
  3295 ;; Parameters:    Size  Location     Type
  3296 ;;  a               1    wreg     unsigned char 
  3297 ;;  b               1    4[COMMON] unsigned char 
  3298 ;; Auto vars:     Size  Location     Type
  3299 ;;  a               1    6[COMMON] unsigned char 
  3300 ;;  temp            1    9[COMMON] unsigned char 
  3301 ;;  y               1    8[COMMON] unsigned char 
  3302 ;;  z               1    7[COMMON] unsigned char 
  3303 ;; Return value:  Size  Location     Type
  3304 ;;                  1    wreg      void 
  3305 ;; Registers used:
  3306 ;;		wreg, status,2, status,0, btemp+1, pclath, cstack
  3307 ;; Tracked objects:
  3308 ;;		On entry : 0/0
  3309 ;;		On exit  : 0/0
  3310 ;;		Unchanged: 0/0
  3311 ;; Data sizes:     COMMON   BANK0   BANK1   BANK3   BANK2
  3312 ;;      Params:         1       0       0       0       0
  3313 ;;      Locals:         4       0       0       0       0
  3314 ;;      Temps:          1       0       0       0       0
  3315 ;;      Totals:         6       0       0       0       0
  3316 ;;Total ram usage:        6 bytes
  3317 ;; Hardware stack levels used:    1
  3318 ;; Hardware stack levels required when called:    2
  3319 ;; This function calls:
  3320 ;;		_Lcd_Cmd
  3321 ;; This function is called by:
  3322 ;;		_main
  3323 ;; This function uses a non-reentrant model
  3324 ;;
  3325                           
  3326                           
  3327                           ;psect for function _Lcd_Set_Cursor
  3328  00EA                     _Lcd_Set_Cursor:
  3329                           
  3330                           ;incstack = 0
  3331                           ; Regs used in _Lcd_Set_Cursor: [wreg+status,2+status,0+btemp+1+pclath+cstack]
  3332                           ;Lcd_Set_Cursor@a stored from wreg
  3333  00EA  00F6               	movwf	Lcd_Set_Cursor@a
  3334  00EB                     l1509:
  3335                           
  3336                           ;lcd.c: 46: char temp,z,y;;lcd.c: 47: if(a== 1)
  3337  00EB  0376               	decf	Lcd_Set_Cursor@a,w
  3338  00EC  1D03               	btfss	3,2
  3339  00ED  28EF               	goto	u1301
  3340  00EE  28F0               	goto	u1300
  3341  00EF                     u1301:
  3342  00EF  2913               	goto	l1519
  3343  00F0                     u1300:
  3344  00F0                     l1511:
  3345                           
  3346                           ;lcd.c: 48: {;lcd.c: 49: temp = 0x80 + b - 1;
  3347  00F0  0874               	movf	Lcd_Set_Cursor@b,w
  3348  00F1  3E7F               	addlw	127
  3349  00F2  00FF               	movwf	btemp+1
  3350  00F3  087F               	movf	btemp+1,w
  3351  00F4  00F9               	movwf	Lcd_Set_Cursor@temp
  3352                           
  3353                           ;lcd.c: 50: z = temp>>4;
  3354  00F5  0879               	movf	Lcd_Set_Cursor@temp,w
  3355  00F6  00F5               	movwf	??_Lcd_Set_Cursor
  3356  00F7  3004               	movlw	4
  3357  00F8                     u1315:
  3358  00F8  1003               	clrc
  3359  00F9  0CF5               	rrf	??_Lcd_Set_Cursor,f
  3360  00FA  3EFF               	addlw	-1
  3361  00FB  1D03               	skipz
  3362  00FC  28F8               	goto	u1315
  3363  00FD  0875               	movf	??_Lcd_Set_Cursor,w
  3364  00FE  00FF               	movwf	btemp+1
  3365  00FF  087F               	movf	btemp+1,w
  3366  0100  00F7               	movwf	Lcd_Set_Cursor@z
  3367  0101                     l1513:
  3368                           
  3369                           ;lcd.c: 51: y = temp & 0x0F;
  3370  0101  0879               	movf	Lcd_Set_Cursor@temp,w
  3371  0102  390F               	andlw	15
  3372  0103  00FF               	movwf	btemp+1
  3373  0104  087F               	movf	btemp+1,w
  3374  0105  00F8               	movwf	Lcd_Set_Cursor@y
  3375  0106                     l1515:
  3376                           
  3377                           ;lcd.c: 52: Lcd_Cmd(z);
  3378  0106  0877               	movf	Lcd_Set_Cursor@z,w
  3379  0107  120A  118A  2027  120A  118A  	fcall	_Lcd_Cmd
  3380  010C                     l1517:
  3381                           
  3382                           ;lcd.c: 53: Lcd_Cmd(y);
  3383  010C  0878               	movf	Lcd_Set_Cursor@y,w
  3384  010D  120A  118A  2027  120A  118A  	fcall	_Lcd_Cmd
  3385                           
  3386                           ;lcd.c: 54: }
  3387  0112  293B               	goto	l82
  3388  0113                     l1519:
  3389                           
  3390                           ;lcd.c: 55: else if(a== 2)
  3391  0113  3002               	movlw	2
  3392  0114  0676               	xorwf	Lcd_Set_Cursor@a,w
  3393  0115  1D03               	btfss	3,2
  3394  0116  2918               	goto	u1321
  3395  0117  2919               	goto	u1320
  3396  0118                     u1321:
  3397  0118  293B               	goto	l82
  3398  0119                     u1320:
  3399  0119                     l1521:
  3400                           
  3401                           ;lcd.c: 56: {;lcd.c: 57: temp = 0xC0 + b - 1;
  3402  0119  0874               	movf	Lcd_Set_Cursor@b,w
  3403  011A  3EBF               	addlw	191
  3404  011B  00FF               	movwf	btemp+1
  3405  011C  087F               	movf	btemp+1,w
  3406  011D  00F9               	movwf	Lcd_Set_Cursor@temp
  3407                           
  3408                           ;lcd.c: 58: z = temp>>4;
  3409  011E  0879               	movf	Lcd_Set_Cursor@temp,w
  3410  011F  00F5               	movwf	??_Lcd_Set_Cursor
  3411  0120  3004               	movlw	4
  3412  0121                     u1335:
  3413  0121  1003               	clrc
  3414  0122  0CF5               	rrf	??_Lcd_Set_Cursor,f
  3415  0123  3EFF               	addlw	-1
  3416  0124  1D03               	skipz
  3417  0125  2921               	goto	u1335
  3418  0126  0875               	movf	??_Lcd_Set_Cursor,w
  3419  0127  00FF               	movwf	btemp+1
  3420  0128  087F               	movf	btemp+1,w
  3421  0129  00F7               	movwf	Lcd_Set_Cursor@z
  3422  012A                     l1523:
  3423                           
  3424                           ;lcd.c: 59: y = temp & 0x0F;
  3425  012A  0879               	movf	Lcd_Set_Cursor@temp,w
  3426  012B  390F               	andlw	15
  3427  012C  00FF               	movwf	btemp+1
  3428  012D  087F               	movf	btemp+1,w
  3429  012E  00F8               	movwf	Lcd_Set_Cursor@y
  3430  012F                     l1525:
  3431                           
  3432                           ;lcd.c: 60: Lcd_Cmd(z);
  3433  012F  0877               	movf	Lcd_Set_Cursor@z,w
  3434  0130  120A  118A  2027  120A  118A  	fcall	_Lcd_Cmd
  3435  0135                     l1527:
  3436                           
  3437                           ;lcd.c: 61: Lcd_Cmd(y);
  3438  0135  0878               	movf	Lcd_Set_Cursor@y,w
  3439  0136  120A  118A  2027  120A  118A  	fcall	_Lcd_Cmd
  3440  013B                     l82:
  3441  013B  0008               	return
  3442  013C                     __end_of_Lcd_Set_Cursor:
  3443                           
  3444                           	psect	text12
  3445  0FBD                     __ptext12:	
  3446 ;; *************** function _Lcd_Print_String *****************
  3447 ;; Defined at:
  3448 ;;		line 99 in file "lcd.c"
  3449 ;; Parameters:    Size  Location     Type
  3450 ;;  a               1    wreg     PTR unsigned char 
  3451 ;;		 -> main@strLvTank2(10), main@strLvTank1(10), 
  3452 ;; Auto vars:     Size  Location     Type
  3453 ;;  a               1   12[COMMON] PTR unsigned char 
  3454 ;;		 -> main@strLvTank2(10), main@strLvTank1(10), 
  3455 ;;  i               2   10[COMMON] int 
  3456 ;; Return value:  Size  Location     Type
  3457 ;;                  1    wreg      void 
  3458 ;; Registers used:
  3459 ;;		wreg, fsr0l, fsr0h, status,2, status,0, btemp+1, pclath, cstack
  3460 ;; Tracked objects:
  3461 ;;		On entry : 0/0
  3462 ;;		On exit  : 0/0
  3463 ;;		Unchanged: 0/0
  3464 ;; Data sizes:     COMMON   BANK0   BANK1   BANK3   BANK2
  3465 ;;      Params:         0       0       0       0       0
  3466 ;;      Locals:         3       0       0       0       0
  3467 ;;      Temps:          1       0       0       0       0
  3468 ;;      Totals:         4       0       0       0       0
  3469 ;;Total ram usage:        4 bytes
  3470 ;; Hardware stack levels used:    1
  3471 ;; Hardware stack levels required when called:    2
  3472 ;; This function calls:
  3473 ;;		_Lcd_Print_Char
  3474 ;; This function is called by:
  3475 ;;		_main
  3476 ;; This function uses a non-reentrant model
  3477 ;;
  3478                           
  3479                           
  3480                           ;psect for function _Lcd_Print_String
  3481  0FBD                     _Lcd_Print_String:
  3482                           
  3483                           ;incstack = 0
  3484                           ; Regs used in _Lcd_Print_String: [wreg-fsr0h+status,2+status,0+btemp+1+pclath+cstack]
  3485                           ;Lcd_Print_String@a stored from wreg
  3486  0FBD  00FC               	movwf	Lcd_Print_String@a
  3487  0FBE                     l1529:
  3488                           
  3489                           ;lcd.c: 101: int i;;lcd.c: 102: for(i=0;a[i]!='\0';i++)
  3490  0FBE  01FA               	clrf	Lcd_Print_String@i
  3491  0FBF  01FB               	clrf	Lcd_Print_String@i+1
  3492  0FC0  2FD2               	goto	l1535
  3493  0FC1                     l1531:
  3494                           
  3495                           ;lcd.c: 103: Lcd_Print_Char(a[i]);
  3496  0FC1  087A               	movf	Lcd_Print_String@i,w
  3497  0FC2  077C               	addwf	Lcd_Print_String@a,w
  3498  0FC3  00F9               	movwf	??_Lcd_Print_String
  3499  0FC4  0879               	movf	??_Lcd_Print_String,w
  3500  0FC5  0084               	movwf	4
  3501  0FC6  0800               	movf	0,w
  3502  0FC7  120A  118A  2191  120A  158A  	fcall	_Lcd_Print_Char
  3503  0FCC                     l1533:
  3504  0FCC  3001               	movlw	1
  3505  0FCD  07FA               	addwf	Lcd_Print_String@i,f
  3506  0FCE  1803               	skipnc
  3507  0FCF  0AFB               	incf	Lcd_Print_String@i+1,f
  3508  0FD0  3000               	movlw	0
  3509  0FD1  07FB               	addwf	Lcd_Print_String@i+1,f
  3510  0FD2                     l1535:
  3511  0FD2  087A               	movf	Lcd_Print_String@i,w
  3512  0FD3  077C               	addwf	Lcd_Print_String@a,w
  3513  0FD4  00F9               	movwf	??_Lcd_Print_String
  3514  0FD5  0879               	movf	??_Lcd_Print_String,w
  3515  0FD6  0084               	movwf	4
  3516  0FD7  1383               	bcf	3,7	;select IRP bank0
  3517  0FD8  0800               	movf	0,w
  3518  0FD9  1D03               	btfss	3,2
  3519  0FDA  2FDC               	goto	u1341
  3520  0FDB  2FDD               	goto	u1340
  3521  0FDC                     u1341:
  3522  0FDC  2FC1               	goto	l1531
  3523  0FDD                     u1340:
  3524  0FDD                     l100:
  3525  0FDD  0008               	return
  3526  0FDE                     __end_of_Lcd_Print_String:
  3527                           
  3528                           	psect	text13
  3529  0191                     __ptext13:	
  3530 ;; *************** function _Lcd_Print_Char *****************
  3531 ;; Defined at:
  3532 ;;		line 83 in file "lcd.c"
  3533 ;; Parameters:    Size  Location     Type
  3534 ;;  data            1    wreg     unsigned char 
  3535 ;; Auto vars:     Size  Location     Type
  3536 ;;  data            1    4[COMMON] unsigned char 
  3537 ;;  i               2    7[COMMON] int 
  3538 ;;  i               2    5[COMMON] int 
  3539 ;;  Upper_Nibble    1    3[COMMON] unsigned char 
  3540 ;;  Lower_Nibble    1    2[COMMON] unsigned char 
  3541 ;; Return value:  Size  Location     Type
  3542 ;;                  1    wreg      void 
  3543 ;; Registers used:
  3544 ;;		wreg, status,2, status,0, btemp+1, pclath, cstack
  3545 ;; Tracked objects:
  3546 ;;		On entry : 0/0
  3547 ;;		On exit  : 0/0
  3548 ;;		Unchanged: 0/0
  3549 ;; Data sizes:     COMMON   BANK0   BANK1   BANK3   BANK2
  3550 ;;      Params:         0       0       0       0       0
  3551 ;;      Locals:         7       0       0       0       0
  3552 ;;      Temps:          1       0       0       0       0
  3553 ;;      Totals:         8       0       0       0       0
  3554 ;;Total ram usage:        8 bytes
  3555 ;; Hardware stack levels used:    1
  3556 ;; Hardware stack levels required when called:    1
  3557 ;; This function calls:
  3558 ;;		_Lcd_SetBit
  3559 ;; This function is called by:
  3560 ;;		_Lcd_Print_String
  3561 ;; This function uses a non-reentrant model
  3562 ;;
  3563                           
  3564                           
  3565                           ;psect for function _Lcd_Print_Char
  3566  0191                     _Lcd_Print_Char:
  3567                           
  3568                           ;incstack = 0
  3569                           ; Regs used in _Lcd_Print_Char: [wreg+status,2+status,0+btemp+1+pclath+cstack]
  3570                           ;Lcd_Print_Char@data stored from wreg
  3571  0191  00F4               	movwf	Lcd_Print_Char@data
  3572  0192                     l1313:
  3573                           
  3574                           ;lcd.c: 85: char Lower_Nibble,Upper_Nibble;;lcd.c: 86: Lower_Nibble = data&0x0F;
  3575  0192  0874               	movf	Lcd_Print_Char@data,w
  3576  0193  390F               	andlw	15
  3577  0194  00FF               	movwf	btemp+1
  3578  0195  087F               	movf	btemp+1,w
  3579  0196  00F2               	movwf	Lcd_Print_Char@Lower_Nibble
  3580                           
  3581                           ;lcd.c: 87: Upper_Nibble = data&0xF0;
  3582  0197  0874               	movf	Lcd_Print_Char@data,w
  3583  0198  39F0               	andlw	240
  3584  0199  00FF               	movwf	btemp+1
  3585  019A  087F               	movf	btemp+1,w
  3586  019B  00F3               	movwf	Lcd_Print_Char@Upper_Nibble
  3587  019C                     l1315:
  3588                           
  3589                           ;lcd.c: 88: RE2 = 1;
  3590  019C  1283               	bcf	3,5	;RP0=0, select bank0
  3591  019D  1303               	bcf	3,6	;RP1=0, select bank0
  3592  019E  1509               	bsf	9,2	;volatile
  3593  019F                     l1317:
  3594                           
  3595                           ;lcd.c: 89: Lcd_SetBit(Upper_Nibble>>4);
  3596  019F  0873               	movf	Lcd_Print_Char@Upper_Nibble,w
  3597  01A0  00F1               	movwf	??_Lcd_Print_Char
  3598  01A1  3004               	movlw	4
  3599  01A2                     u1055:
  3600  01A2  1003               	clrc
  3601  01A3  0CF1               	rrf	??_Lcd_Print_Char,f
  3602  01A4  3EFF               	addlw	-1
  3603  01A5  1D03               	skipz
  3604  01A6  29A2               	goto	u1055
  3605  01A7  0871               	movf	??_Lcd_Print_Char,w
  3606  01A8  120A  158A  27DE  120A  118A  	fcall	_Lcd_SetBit
  3607  01AD                     l1319:
  3608                           
  3609                           ;lcd.c: 90: RE1 = 1;
  3610  01AD  1283               	bcf	3,5	;RP0=0, select bank0
  3611  01AE  1303               	bcf	3,6	;RP1=0, select bank0
  3612  01AF  1489               	bsf	9,1	;volatile
  3613  01B0                     l1321:
  3614                           
  3615                           ;lcd.c: 91: for(int i=2130483; i<=0; i--) __nop();
  3616  01B0  3033               	movlw	51
  3617  01B1  00F5               	movwf	Lcd_Print_Char@i
  3618  01B2  3082               	movlw	130
  3619  01B3  00F6               	movwf	Lcd_Print_Char@i+1
  3620  01B4                     l90:
  3621  01B4  0000               	nop
  3622  01B5                     l1327:
  3623  01B5  30FF               	movlw	255
  3624  01B6  07F5               	addwf	Lcd_Print_Char@i,f
  3625  01B7  1803               	skipnc
  3626  01B8  0AF6               	incf	Lcd_Print_Char@i+1,f
  3627  01B9  30FF               	movlw	255
  3628  01BA  07F6               	addwf	Lcd_Print_Char@i+1,f
  3629  01BB                     l1329:
  3630  01BB  0876               	movf	Lcd_Print_Char@i+1,w
  3631  01BC  3A80               	xorlw	128
  3632  01BD  00FF               	movwf	btemp+1
  3633  01BE  3080               	movlw	128
  3634  01BF  027F               	subwf	btemp+1,w
  3635  01C0  1D03               	skipz
  3636  01C1  29C4               	goto	u1065
  3637  01C2  3001               	movlw	1
  3638  01C3  0275               	subwf	Lcd_Print_Char@i,w
  3639  01C4                     u1065:
  3640  01C4  1C03               	skipc
  3641  01C5  29C7               	goto	u1061
  3642  01C6  29C8               	goto	u1060
  3643  01C7                     u1061:
  3644  01C7  29B4               	goto	l90
  3645  01C8                     u1060:
  3646  01C8                     l91:
  3647                           
  3648                           ;lcd.c: 92: RE1 = 0;
  3649  01C8  1283               	bcf	3,5	;RP0=0, select bank0
  3650  01C9  1303               	bcf	3,6	;RP1=0, select bank0
  3651  01CA  1089               	bcf	9,1	;volatile
  3652  01CB                     l1331:
  3653                           
  3654                           ;lcd.c: 93: Lcd_SetBit(Lower_Nibble);
  3655  01CB  0872               	movf	Lcd_Print_Char@Lower_Nibble,w
  3656  01CC  120A  158A  27DE  120A  118A  	fcall	_Lcd_SetBit
  3657  01D1                     l1333:
  3658                           
  3659                           ;lcd.c: 94: RE1 = 1;
  3660  01D1  1283               	bcf	3,5	;RP0=0, select bank0
  3661  01D2  1303               	bcf	3,6	;RP1=0, select bank0
  3662  01D3  1489               	bsf	9,1	;volatile
  3663  01D4                     l1335:
  3664                           
  3665                           ;lcd.c: 95: for(int i=2130483; i<=0; i--) __nop();
  3666  01D4  3033               	movlw	51
  3667  01D5  00F7               	movwf	Lcd_Print_Char@i_144
  3668  01D6  3082               	movlw	130
  3669  01D7  00F8               	movwf	Lcd_Print_Char@i_144+1
  3670  01D8                     l92:
  3671  01D8  0000               	nop
  3672  01D9                     l1341:
  3673  01D9  30FF               	movlw	255
  3674  01DA  07F7               	addwf	Lcd_Print_Char@i_144,f
  3675  01DB  1803               	skipnc
  3676  01DC  0AF8               	incf	Lcd_Print_Char@i_144+1,f
  3677  01DD  30FF               	movlw	255
  3678  01DE  07F8               	addwf	Lcd_Print_Char@i_144+1,f
  3679  01DF                     l1343:
  3680  01DF  0878               	movf	Lcd_Print_Char@i_144+1,w
  3681  01E0  3A80               	xorlw	128
  3682  01E1  00FF               	movwf	btemp+1
  3683  01E2  3080               	movlw	128
  3684  01E3  027F               	subwf	btemp+1,w
  3685  01E4  1D03               	skipz
  3686  01E5  29E8               	goto	u1075
  3687  01E6  3001               	movlw	1
  3688  01E7  0277               	subwf	Lcd_Print_Char@i_144,w
  3689  01E8                     u1075:
  3690  01E8  1C03               	skipc
  3691  01E9  29EB               	goto	u1071
  3692  01EA  29EC               	goto	u1070
  3693  01EB                     u1071:
  3694  01EB  29D8               	goto	l92
  3695  01EC                     u1070:
  3696  01EC                     l93:
  3697                           
  3698                           ;lcd.c: 96: RE1 = 0;
  3699  01EC  1283               	bcf	3,5	;RP0=0, select bank0
  3700  01ED  1303               	bcf	3,6	;RP1=0, select bank0
  3701  01EE  1089               	bcf	9,1	;volatile
  3702  01EF                     l94:
  3703  01EF  0008               	return
  3704  01F0                     __end_of_Lcd_Print_Char:
  3705                           
  3706                           	psect	text14
  3707  0FB0                     __ptext14:	
  3708 ;; *************** function _Lcd_Clear *****************
  3709 ;; Defined at:
  3710 ;;		line 38 in file "lcd.c"
  3711 ;; Parameters:    Size  Location     Type
  3712 ;;		None
  3713 ;; Auto vars:     Size  Location     Type
  3714 ;;		None
  3715 ;; Return value:  Size  Location     Type
  3716 ;;                  2   18[None  ] int 
  3717 ;; Registers used:
  3718 ;;		wreg, status,2, status,0, pclath, cstack
  3719 ;; Tracked objects:
  3720 ;;		On entry : 0/0
  3721 ;;		On exit  : 0/0
  3722 ;;		Unchanged: 0/0
  3723 ;; Data sizes:     COMMON   BANK0   BANK1   BANK3   BANK2
  3724 ;;      Params:         0       0       0       0       0
  3725 ;;      Locals:         0       0       0       0       0
  3726 ;;      Temps:          0       0       0       0       0
  3727 ;;      Totals:         0       0       0       0       0
  3728 ;;Total ram usage:        0 bytes
  3729 ;; Hardware stack levels used:    1
  3730 ;; Hardware stack levels required when called:    2
  3731 ;; This function calls:
  3732 ;;		_Lcd_Cmd
  3733 ;; This function is called by:
  3734 ;;		_main
  3735 ;; This function uses a non-reentrant model
  3736 ;;
  3737                           
  3738                           
  3739                           ;psect for function _Lcd_Clear
  3740  0FB0                     _Lcd_Clear:
  3741  0FB0                     l1507:	
  3742                           ;incstack = 0
  3743                           ; Regs used in _Lcd_Clear: [wreg+status,2+status,0+pclath+cstack]
  3744                           
  3745                           
  3746                           ;lcd.c: 40: Lcd_Cmd(0);
  3747  0FB0  3000               	movlw	0
  3748  0FB1  120A  118A  2027  120A  158A  	fcall	_Lcd_Cmd
  3749                           
  3750                           ;lcd.c: 41: Lcd_Cmd(1);
  3751  0FB6  3001               	movlw	1
  3752  0FB7  120A  118A  2027  120A  158A  	fcall	_Lcd_Cmd
  3753  0FBC                     l76:
  3754  0FBC  0008               	return
  3755  0FBD                     __end_of_Lcd_Clear:
  3756                           
  3757                           	psect	text15
  3758  0027                     __ptext15:	
  3759 ;; *************** function _Lcd_Cmd *****************
  3760 ;; Defined at:
  3761 ;;		line 29 in file "lcd.c"
  3762 ;; Parameters:    Size  Location     Type
  3763 ;;  a               1    wreg     unsigned char 
  3764 ;; Auto vars:     Size  Location     Type
  3765 ;;  a               1    3[COMMON] unsigned char 
  3766 ;; Return value:  Size  Location     Type
  3767 ;;                  1    wreg      void 
  3768 ;; Registers used:
  3769 ;;		wreg, status,2, status,0, pclath, cstack
  3770 ;; Tracked objects:
  3771 ;;		On entry : 0/0
  3772 ;;		On exit  : 0/0
  3773 ;;		Unchanged: 0/0
  3774 ;; Data sizes:     COMMON   BANK0   BANK1   BANK3   BANK2
  3775 ;;      Params:         0       0       0       0       0
  3776 ;;      Locals:         1       0       0       0       0
  3777 ;;      Temps:          2       0       0       0       0
  3778 ;;      Totals:         3       0       0       0       0
  3779 ;;Total ram usage:        3 bytes
  3780 ;; Hardware stack levels used:    1
  3781 ;; Hardware stack levels required when called:    1
  3782 ;; This function calls:
  3783 ;;		_Lcd_SetBit
  3784 ;; This function is called by:
  3785 ;;		_Lcd_Clear
  3786 ;;		_Lcd_Set_Cursor
  3787 ;;		_Lcd_Start
  3788 ;; This function uses a non-reentrant model
  3789 ;;
  3790                           
  3791                           
  3792                           ;psect for function _Lcd_Cmd
  3793  0027                     _Lcd_Cmd:
  3794                           
  3795                           ;incstack = 0
  3796                           ; Regs used in _Lcd_Cmd: [wreg+status,2+status,0+pclath+cstack]
  3797                           ;Lcd_Cmd@a stored from wreg
  3798  0027  00F3               	movwf	Lcd_Cmd@a
  3799  0028                     l1303:
  3800                           
  3801                           ;lcd.c: 31: RE2 = 0;
  3802  0028  1283               	bcf	3,5	;RP0=0, select bank0
  3803  0029  1303               	bcf	3,6	;RP1=0, select bank0
  3804  002A  1109               	bcf	9,2	;volatile
  3805  002B                     l1305:
  3806                           
  3807                           ;lcd.c: 32: Lcd_SetBit(a);
  3808  002B  0873               	movf	Lcd_Cmd@a,w
  3809  002C  120A  158A  27DE  120A  118A  	fcall	_Lcd_SetBit
  3810  0031                     l1307:
  3811                           
  3812                           ;lcd.c: 33: RE1 = 1;
  3813  0031  1283               	bcf	3,5	;RP0=0, select bank0
  3814  0032  1303               	bcf	3,6	;RP1=0, select bank0
  3815  0033  1489               	bsf	9,1	;volatile
  3816  0034                     l1309:
  3817                           
  3818                           ;lcd.c: 34: _delay((unsigned long)((4)*(20000000/4000.0)));
  3819  0034  301A               	movlw	26
  3820  0035  00F2               	movwf	??_Lcd_Cmd+1
  3821  0036  30F8               	movlw	248
  3822  0037  00F1               	movwf	??_Lcd_Cmd
  3823  0038                     u2047:
  3824  0038  0BF1               	decfsz	??_Lcd_Cmd,f
  3825  0039  2838               	goto	u2047
  3826  003A  0BF2               	decfsz	??_Lcd_Cmd+1,f
  3827  003B  2838               	goto	u2047
  3828  003C  0000               	nop
  3829  003D                     l1311:
  3830                           
  3831                           ;lcd.c: 35: RE1 = 0;
  3832  003D  1283               	bcf	3,5	;RP0=0, select bank0
  3833  003E  1303               	bcf	3,6	;RP1=0, select bank0
  3834  003F  1089               	bcf	9,1	;volatile
  3835  0040                     l73:
  3836  0040  0008               	return
  3837  0041                     __end_of_Lcd_Cmd:
  3838                           
  3839                           	psect	text16
  3840  0FDE                     __ptext16:	
  3841 ;; *************** function _Lcd_SetBit *****************
  3842 ;; Defined at:
  3843 ;;		line 6 in file "lcd.c"
  3844 ;; Parameters:    Size  Location     Type
  3845 ;;  data_bit        1    wreg     unsigned char 
  3846 ;; Auto vars:     Size  Location     Type
  3847 ;;  data_bit        1    0[COMMON] unsigned char 
  3848 ;; Return value:  Size  Location     Type
  3849 ;;                  1    wreg      void 
  3850 ;; Registers used:
  3851 ;;		wreg
  3852 ;; Tracked objects:
  3853 ;;		On entry : 0/0
  3854 ;;		On exit  : 0/0
  3855 ;;		Unchanged: 0/0
  3856 ;; Data sizes:     COMMON   BANK0   BANK1   BANK3   BANK2
  3857 ;;      Params:         0       0       0       0       0
  3858 ;;      Locals:         1       0       0       0       0
  3859 ;;      Temps:          0       0       0       0       0
  3860 ;;      Totals:         1       0       0       0       0
  3861 ;;Total ram usage:        1 bytes
  3862 ;; Hardware stack levels used:    1
  3863 ;; This function calls:
  3864 ;;		Nothing
  3865 ;; This function is called by:
  3866 ;;		_Lcd_Cmd
  3867 ;;		_Lcd_Start
  3868 ;;		_Lcd_Print_Char
  3869 ;; This function uses a non-reentrant model
  3870 ;;
  3871                           
  3872                           
  3873                           ;psect for function _Lcd_SetBit
  3874  0FDE                     _Lcd_SetBit:
  3875                           
  3876                           ;incstack = 0
  3877                           ; Regs used in _Lcd_SetBit: [wreg]
  3878                           ;Lcd_SetBit@data_bit stored from wreg
  3879  0FDE  00F0               	movwf	Lcd_SetBit@data_bit
  3880  0FDF                     l1293:
  3881                           
  3882                           ;lcd.c: 8: if(data_bit& 1)
  3883  0FDF  1C70               	btfss	Lcd_SetBit@data_bit,0
  3884  0FE0  2FE2               	goto	u1011
  3885  0FE1  2FE3               	goto	u1010
  3886  0FE2                     u1011:
  3887  0FE2  2FE7               	goto	l62
  3888  0FE3                     u1010:
  3889  0FE3                     l1295:
  3890                           
  3891                           ;lcd.c: 9: RD4 = 1;
  3892  0FE3  1283               	bcf	3,5	;RP0=0, select bank0
  3893  0FE4  1303               	bcf	3,6	;RP1=0, select bank0
  3894  0FE5  1608               	bsf	8,4	;volatile
  3895  0FE6  2FEA               	goto	l63
  3896  0FE7                     l62:
  3897                           
  3898                           ;lcd.c: 10: else;lcd.c: 11: RD4 = 0;
  3899  0FE7  1283               	bcf	3,5	;RP0=0, select bank0
  3900  0FE8  1303               	bcf	3,6	;RP1=0, select bank0
  3901  0FE9  1208               	bcf	8,4	;volatile
  3902  0FEA                     l63:
  3903                           
  3904                           ;lcd.c: 13: if(data_bit& 2)
  3905  0FEA  1CF0               	btfss	Lcd_SetBit@data_bit,1
  3906  0FEB  2FED               	goto	u1021
  3907  0FEC  2FEE               	goto	u1020
  3908  0FED                     u1021:
  3909  0FED  2FF0               	goto	l64
  3910  0FEE                     u1020:
  3911  0FEE                     l1297:
  3912                           
  3913                           ;lcd.c: 14: RD5 = 1;
  3914  0FEE  1688               	bsf	8,5	;volatile
  3915  0FEF  2FF1               	goto	l65
  3916  0FF0                     l64:
  3917                           
  3918                           ;lcd.c: 15: else;lcd.c: 16: RD5 = 0;
  3919  0FF0  1288               	bcf	8,5	;volatile
  3920  0FF1                     l65:
  3921                           
  3922                           ;lcd.c: 18: if(data_bit& 4)
  3923  0FF1  1D70               	btfss	Lcd_SetBit@data_bit,2
  3924  0FF2  2FF4               	goto	u1031
  3925  0FF3  2FF5               	goto	u1030
  3926  0FF4                     u1031:
  3927  0FF4  2FF7               	goto	l66
  3928  0FF5                     u1030:
  3929  0FF5                     l1299:
  3930                           
  3931                           ;lcd.c: 19: RD6 = 1;
  3932  0FF5  1708               	bsf	8,6	;volatile
  3933  0FF6  2FF8               	goto	l67
  3934  0FF7                     l66:
  3935                           
  3936                           ;lcd.c: 20: else;lcd.c: 21: RD6 = 0;
  3937  0FF7  1308               	bcf	8,6	;volatile
  3938  0FF8                     l67:
  3939                           
  3940                           ;lcd.c: 23: if(data_bit& 8)
  3941  0FF8  1DF0               	btfss	Lcd_SetBit@data_bit,3
  3942  0FF9  2FFB               	goto	u1041
  3943  0FFA  2FFC               	goto	u1040
  3944  0FFB                     u1041:
  3945  0FFB  2FFE               	goto	l68
  3946  0FFC                     u1040:
  3947  0FFC                     l1301:
  3948                           
  3949                           ;lcd.c: 24: RD7 = 1;
  3950  0FFC  1788               	bsf	8,7	;volatile
  3951  0FFD  2FFF               	goto	l70
  3952  0FFE                     l68:
  3953                           
  3954                           ;lcd.c: 25: else;lcd.c: 26: RD7 = 0;
  3955  0FFE  1388               	bcf	8,7	;volatile
  3956  0FFF                     l70:
  3957  0FFF  0008               	return
  3958  1000                     __end_of_Lcd_SetBit:
  3959                           
  3960                           	psect	text17
  3961  0041                     __ptext17:	
  3962 ;; *************** function _ADC_Read *****************
  3963 ;; Defined at:
  3964 ;;		line 11 in file "adc.c"
  3965 ;; Parameters:    Size  Location     Type
  3966 ;;  channel         1    wreg     unsigned char 
  3967 ;; Auto vars:     Size  Location     Type
  3968 ;;  channel         1    4[COMMON] unsigned char 
  3969 ;; Return value:  Size  Location     Type
  3970 ;;                  2    0[COMMON] unsigned int 
  3971 ;; Registers used:
  3972 ;;		wreg, status,2, status,0, btemp+1
  3973 ;; Tracked objects:
  3974 ;;		On entry : 0/0
  3975 ;;		On exit  : 0/0
  3976 ;;		Unchanged: 0/0
  3977 ;; Data sizes:     COMMON   BANK0   BANK1   BANK3   BANK2
  3978 ;;      Params:         2       0       0       0       0
  3979 ;;      Locals:         1       0       0       0       0
  3980 ;;      Temps:          2       0       0       0       0
  3981 ;;      Totals:         5       0       0       0       0
  3982 ;;Total ram usage:        5 bytes
  3983 ;; Hardware stack levels used:    1
  3984 ;; This function calls:
  3985 ;;		Nothing
  3986 ;; This function is called by:
  3987 ;;		_main
  3988 ;; This function uses a non-reentrant model
  3989 ;;
  3990                           
  3991                           
  3992                           ;psect for function _ADC_Read
  3993  0041                     _ADC_Read:
  3994                           
  3995                           ;incstack = 0
  3996                           ; Regs used in _ADC_Read: [wreg+status,2+status,0+btemp+1]
  3997                           ;ADC_Read@channel stored from wreg
  3998  0041  00F4               	movwf	ADC_Read@channel
  3999  0042                     l1433:
  4000                           
  4001                           ;adc.c: 13: ADCON0 &= 0x11000101;
  4002  0042  3001               	movlw	1
  4003  0043  00FF               	movwf	btemp+1
  4004  0044  087F               	movf	btemp+1,w
  4005  0045  1283               	bcf	3,5	;RP0=0, select bank0
  4006  0046  1303               	bcf	3,6	;RP1=0, select bank0
  4007  0047  059F               	andwf	31,f	;volatile
  4008                           
  4009                           ;adc.c: 14: ADCON0 |= channel<<3;
  4010  0048  0874               	movf	ADC_Read@channel,w
  4011  0049  00F2               	movwf	??_ADC_Read
  4012  004A  3002               	movlw	2
  4013  004B                     u1215:
  4014  004B  1003               	clrc
  4015  004C  0DF2               	rlf	??_ADC_Read,f
  4016  004D  3EFF               	addlw	-1
  4017  004E  1D03               	skipz
  4018  004F  284B               	goto	u1215
  4019  0050  1003               	clrc
  4020  0051  0D72               	rlf	??_ADC_Read,w
  4021  0052  00FF               	movwf	btemp+1
  4022  0053  087F               	movf	btemp+1,w
  4023  0054  049F               	iorwf	31,f	;volatile
  4024  0055                     l1435:
  4025                           
  4026                           ;adc.c: 15: _delay((unsigned long)((2)*(20000000/4000.0)));
  4027  0055  300D               	movlw	13
  4028  0056  00F3               	movwf	??_ADC_Read+1
  4029  0057  30FB               	movlw	251
  4030  0058  00F2               	movwf	??_ADC_Read
  4031  0059                     u2057:
  4032  0059  0BF2               	decfsz	??_ADC_Read,f
  4033  005A  2859               	goto	u2057
  4034  005B  0BF3               	decfsz	??_ADC_Read+1,f
  4035  005C  2859               	goto	u2057
  4036  005D  285E               	nop2
  4037  005E                     l1437:
  4038                           
  4039                           ;adc.c: 16: GO_nDONE = 1;
  4040  005E  1283               	bcf	3,5	;RP0=0, select bank0
  4041  005F  1303               	bcf	3,6	;RP1=0, select bank0
  4042  0060  151F               	bsf	31,2	;volatile
  4043  0061                     l118:	
  4044                           ;adc.c: 17: while(GO_nDONE);
  4045                           
  4046  0061  191F               	btfsc	31,2	;volatile
  4047  0062  2864               	goto	u1221
  4048  0063  2865               	goto	u1220
  4049  0064                     u1221:
  4050  0064  2861               	goto	l118
  4051  0065                     u1220:
  4052  0065                     l1439:
  4053                           
  4054                           ;adc.c: 18: return ((ADRESH<<8)+ADRESL);
  4055  0065  081E               	movf	30,w	;volatile
  4056  0066  00F1               	movwf	?_ADC_Read+1
  4057  0067  1683               	bsf	3,5	;RP0=1, select bank1
  4058  0068  1303               	bcf	3,6	;RP1=0, select bank1
  4059  0069  081E               	movf	30,w	;volatile
  4060  006A  00F0               	movwf	?_ADC_Read
  4061  006B                     l121:
  4062  006B  0008               	return
  4063  006C                     __end_of_ADC_Read:
  4064                           
  4065                           	psect	text18
  4066  0FA7                     __ptext18:	
  4067 ;; *************** function _ADC_Initialize *****************
  4068 ;; Defined at:
  4069 ;;		line 5 in file "adc.c"
  4070 ;; Parameters:    Size  Location     Type
  4071 ;;		None
  4072 ;; Auto vars:     Size  Location     Type
  4073 ;;		None
  4074 ;; Return value:  Size  Location     Type
  4075 ;;                  1    wreg      void 
  4076 ;; Registers used:
  4077 ;;		wreg
  4078 ;; Tracked objects:
  4079 ;;		On entry : 0/0
  4080 ;;		On exit  : 0/0
  4081 ;;		Unchanged: 0/0
  4082 ;; Data sizes:     COMMON   BANK0   BANK1   BANK3   BANK2
  4083 ;;      Params:         0       0       0       0       0
  4084 ;;      Locals:         0       0       0       0       0
  4085 ;;      Temps:          0       0       0       0       0
  4086 ;;      Totals:         0       0       0       0       0
  4087 ;;Total ram usage:        0 bytes
  4088 ;; Hardware stack levels used:    1
  4089 ;; This function calls:
  4090 ;;		Nothing
  4091 ;; This function is called by:
  4092 ;;		_main
  4093 ;; This function uses a non-reentrant model
  4094 ;;
  4095                           
  4096                           
  4097                           ;psect for function _ADC_Initialize
  4098  0FA7                     _ADC_Initialize:
  4099  0FA7                     l1397:	
  4100                           ;incstack = 0
  4101                           ; Regs used in _ADC_Initialize: [wreg]
  4102                           
  4103                           
  4104                           ;adc.c: 7: ADCON0 = 0b01000001;
  4105  0FA7  3041               	movlw	65
  4106  0FA8  1283               	bcf	3,5	;RP0=0, select bank0
  4107  0FA9  1303               	bcf	3,6	;RP1=0, select bank0
  4108  0FAA  009F               	movwf	31	;volatile
  4109                           
  4110                           ;adc.c: 8: ADCON1 = 0b11000000;
  4111  0FAB  30C0               	movlw	192
  4112  0FAC  1683               	bsf	3,5	;RP0=1, select bank1
  4113  0FAD  1303               	bcf	3,6	;RP1=0, select bank1
  4114  0FAE  009F               	movwf	31	;volatile
  4115  0FAF                     l115:
  4116  0FAF  0008               	return
  4117  0FB0                     __end_of_ADC_Initialize:
  4118  007E                     btemp	set	126	;btemp
  4119  007E                     wtemp0	set	126
  4120                           
  4121                           	psect	config
  4122                           
  4123                           ;Config register CONFIG @ 0x2007
  4124                           ;	Oscillator Selection bits
  4125                           ;	FOSC = EXTRC, RC oscillator
  4126                           ;	Watchdog Timer Enable bit
  4127                           ;	WDTE = OFF, WDT disabled
  4128                           ;	Power-up Timer Enable bit
  4129                           ;	PWRTE = ON, PWRT enabled
  4130                           ;	Brown-out Reset Enable bit
  4131                           ;	BOREN = ON, BOR enabled
  4132                           ;	Low-Voltage (Single-Supply) In-Circuit Serial Programming Enable bit
  4133                           ;	LVP = OFF, RB3 is digital I/O, HV on MCLR must be used for programming
  4134                           ;	Data EEPROM Memory Code Protection bit
  4135                           ;	CPD = OFF, Data EEPROM code protection off
  4136                           ;	Flash Program Memory Write Enable bits
  4137                           ;	WRT = OFF, Write protection off; all program memory may be written to by EECON control
  4138                           ;	In-Circuit Debugger Mode bit
  4139                           ;	DEBUG = 0x1, unprogrammed default
  4140                           ;	Flash Program Memory Code Protection bit
  4141                           ;	CP = OFF, Code protection off
  4142  2007                     	org	8199
  4143  2007  3F73               	dw	16243

Data Sizes:
    Strings     20
    Constant    10
    Data        0
    BSS         0
    Persistent  0
    Stack       0

Auto Spaces:
    Space          Size  Autos    Used
    COMMON           14     14      14
    BANK0            80     62      62
    BANK1            80      0       0
    BANK3            96      0       0
    BANK2            96      0       0

Pointer List with Targets:

    sprintf@f	PTR const unsigned char  size(1) Largest target is 10
		 -> STR_2(CODE[10]), STR_1(CODE[10]), 

    sprintf@sp	PTR unsigned char  size(1) Largest target is 10
		 -> main@strLvTank2(BANK0[10]), main@strLvTank1(BANK0[10]), 

    sprintf@ap	PTR void [1] size(1) Largest target is 2
		 -> ?_sprintf(BANK0[2]), 

    Lcd_Print_String@a	PTR unsigned char  size(1) Largest target is 10
		 -> main@strLvTank2(BANK0[10]), main@strLvTank1(BANK0[10]), 


Critical Paths under _main in COMMON

    _main->___xxtofl
    _sprintf->___lwmod
    ___lwmod->___lwdiv
    ___fldiv->___xxtofl
    _Lcd_Start->_Lcd_Cmd
    _Lcd_Set_Cursor->_Lcd_Cmd
    _Lcd_Print_String->_Lcd_Print_Char
    _Lcd_Print_Char->_Lcd_SetBit
    _Lcd_Clear->_Lcd_Cmd
    _Lcd_Cmd->_Lcd_SetBit

Critical Paths under _main in BANK0

    _main->___fldiv

Critical Paths under _main in BANK1

    None.

Critical Paths under _main in BANK3

    None.

Critical Paths under _main in BANK2

    None.

Call Graph Tables:

 ---------------------------------------------------------------------------------
 (Depth) Function   	        Calls       Base Space   Used Autos Params    Refs
 ---------------------------------------------------------------------------------
 (0) _main                                                36    36      0    6084
                                             26 BANK0     36    36      0
                     _ADC_Initialize
                           _ADC_Read
                          _Lcd_Clear
                   _Lcd_Print_String
                     _Lcd_Set_Cursor
                          _Lcd_Start
                       _PowerOffPump
                        _PowerOnPump
                            ___fldiv
                             ___flge
                            ___fltol
                           ___xxtofl
                            _sprintf
 ---------------------------------------------------------------------------------
 (1) _sprintf                                             21    18      3    1365
                                              0 BANK0     13    10      3
                            ___fltol (ARG)
                            ___lwdiv
                            ___lwmod
 ---------------------------------------------------------------------------------
 (2) ___lwmod                                              5     1      4     311
                                              7 COMMON     5     1      4
                            ___lwdiv (ARG)
 ---------------------------------------------------------------------------------
 (2) ___lwdiv                                              7     3      4     314
                                              0 COMMON     7     3      4
 ---------------------------------------------------------------------------------
 (1) ___xxtofl                                            14    10      4     474
                                              0 COMMON    14    10      4
 ---------------------------------------------------------------------------------
 (1) ___fltol                                             10     6      4     381
                                              0 COMMON    10     6      4
 ---------------------------------------------------------------------------------
 (1) ___flge                                              12     4      8     790
                                              0 COMMON    12     4      8
 ---------------------------------------------------------------------------------
 (1) ___fldiv                                             26    18      8    1425
                                              0 BANK0     26    18      8
                           ___xxtofl (ARG)
 ---------------------------------------------------------------------------------
 (1) _PowerOnPump                                          0     0      0       0
 ---------------------------------------------------------------------------------
 (1) _PowerOffPump                                         0     0      0       0
 ---------------------------------------------------------------------------------
 (1) _Lcd_Start                                            4     4      0     244
                                              4 COMMON     4     4      0
                            _Lcd_Cmd
                         _Lcd_SetBit
 ---------------------------------------------------------------------------------
 (1) _Lcd_Set_Cursor                                       6     5      1     532
                                              4 COMMON     6     5      1
                            _Lcd_Cmd
 ---------------------------------------------------------------------------------
 (1) _Lcd_Print_String                                     4     4      0     426
                                              9 COMMON     4     4      0
                     _Lcd_Print_Char
 ---------------------------------------------------------------------------------
 (2) _Lcd_Print_Char                                       8     8      0     270
                                              1 COMMON     8     8      0
                         _Lcd_SetBit
 ---------------------------------------------------------------------------------
 (1) _Lcd_Clear                                            0     0      0     110
                            _Lcd_Cmd
 ---------------------------------------------------------------------------------
 (2) _Lcd_Cmd                                              3     3      0     110
                                              1 COMMON     3     3      0
                         _Lcd_SetBit
 ---------------------------------------------------------------------------------
 (2) _Lcd_SetBit                                           1     1      0      88
                                              0 COMMON     1     1      0
 ---------------------------------------------------------------------------------
 (1) _ADC_Read                                             5     3      2      22
                                              0 COMMON     5     3      2
 ---------------------------------------------------------------------------------
 (1) _ADC_Initialize                                       0     0      0       0
 ---------------------------------------------------------------------------------
 Estimated maximum stack depth 2
 ---------------------------------------------------------------------------------

 Call Graph Graphs:

 _main (ROOT)
   _ADC_Initialize
   _ADC_Read
   _Lcd_Clear
     _Lcd_Cmd
       _Lcd_SetBit
   _Lcd_Print_String
     _Lcd_Print_Char
       _Lcd_SetBit
   _Lcd_Set_Cursor
     _Lcd_Cmd
       _Lcd_SetBit
   _Lcd_Start
     _Lcd_Cmd
       _Lcd_SetBit
     _Lcd_SetBit
   _PowerOffPump
   _PowerOnPump
   ___fldiv
     ___xxtofl (ARG)
   ___flge
   ___fltol
   ___xxtofl
   _sprintf
     ___fltol (ARG)
     ___lwdiv (ARG)
     ___lwmod (ARG)
       ___lwdiv (ARG)

 Address spaces:
Name               Size   Autos  Total    Cost      Usage
BITCOMMON            E      0       0       0        0.0%
EEDATA             100      0       0       0        0.0%
NULL                 0      0       0       0        0.0%
CODE                 0      0       0       0        0.0%
COMMON               E      E       E       1      100.0%
BITSFR0              0      0       0       1        0.0%
SFR0                 0      0       0       1        0.0%
BITSFR1              0      0       0       2        0.0%
SFR1                 0      0       0       2        0.0%
STACK                0      0       0       2        0.0%
ABS                  0      0       0       3        0.0%
BITBANK0            50      0       0       4        0.0%
BITSFR3              0      0       0       4        0.0%
SFR3                 0      0       0       4        0.0%
BANK0               50     3E      3E       5       77.5%
BITSFR2              0      0       0       5        0.0%
SFR2                 0      0       0       5        0.0%
BITBANK1            50      0       0       6        0.0%
BANK1               50      0       0       7        0.0%
BITBANK3            60      0       0       8        0.0%
BANK3               60      0       0       9        0.0%
BITBANK2            60      0       0      10        0.0%
BANK2               60      0       0      11        0.0%
DATA                 0      0       0      12        0.0%


Microchip Technology PIC Macro Assembler V2.20 build 20200408173844 
Symbol Table                                                                                   Tue Jun 30 18:26:23 2020

              ___fldiv@aexp 0039                ___fldiv@bexp 0038                           pc 0002  
              ___fldiv@sign 0031                          l30 0FA2                          l27 0FA6  
                        l70 0FFF                          l62 0FE7                          l63 0FEA  
                        l64 0FF0                          l65 0FF1                          l73 0040  
                        l66 0FF7                          l90 01B4                          l82 013B  
                        l67 0FF8                          l91 01C8                          l68 0FFE  
                        l76 0FBC                          l92 01D8                          l93 01EC  
                        l94 01EF                          l87 0190                          fsr 0004  
                       l100 0FDD                         l121 006B                         l115 0FAF  
                       l118 0061                         l231 04A5                         l412 02F2  
                       l413 030B                         l421 0269                         l431 0269  
                       l600 076D                         l409 0286                         l507 00E9  
                       l428 0254                         l517 00A5                         l608 07EF  
                       l670 03C5                         l584 067B                         l681 038F  
                       l586 07FB                         l682 039B                         l668 032E  
                       _RE1 0049                         _RD4 0044                         _RE2 004A  
                       _RD5 0045                         _RD6 0046                         _RD7 0047  
                       fsr0 0004                         indf 0000                ___fltol@exp1 0079  
                      l1301 0FFC                        l1311 003D                        l1303 0028  
                      l1305 002B                        l1321 01B0                        l1313 0192  
                      l1401 0142                        l1307 0031                        l1331 01CB  
                      l1315 019C                        l1411 0142                        l1403 0142  
                      l1309 0034                        l1341 01D9                        l1333 01D1  
                      l1317 019F                        l1421 016C                        l1413 0148  
                      l1501 048F                        l1343 01DF                        l1335 01D4  
                      l1327 01B5                        l1319 01AD                        l1511 00F0  
                      l1431 018A                        l1423 0172                        l1415 0151  
                      l1351 00B1                        l1503 04A1                        l1433 0042  
                      l1329 01BB                        l1521 0119                        l1513 0101  
                      l1425 0178                        l1417 0160                        l1601 0630  
                      l1361 00D7                        l1353 00B8                        l1345 00A6  
                      l1435 0055                        l1507 0FB0                        l1531 0FC1  
                      l1523 012A                        l1515 0106                        l1427 017E  
                      l1419 0166                        l1611 0644                        l1603 0631  
                      l1363 00D8                        l1355 00BC                        l1347 00A8  
                      l1371 006C                        l1451 03E0                        l1443 03C9  
                      l1437 005E                        l1293 0FDF                        l1533 0FCC  
                      l1525 012F                        l1517 010C                        l1509 00EB  
                      l1429 0184                        l1701 076A                        l1621 065D  
                      l1605 0636                        l1613 0646                        l1541 029A  
                      l1365 00DF                        l1357 00C0                        l1349 00AE  
                      l1381 0084                        l1373 0072                        l1461 03F6  
                      l1445 03CE                        l1439 0065                        l1295 0FE3  
                      l1535 0FD2                        l1527 0135                        l1519 0113  
                      l1711 0789                        l1631 0671                        l1623 065E  
                      l1615 064E                        l1607 063B                        l1551 0308  
                      l1543 02A2                        l1359 00D1                        l1367 00E5  
                      l1383 008E                        l1375 0075                        l1471 040F  
                      l1463 03FE                        l1447 03D4                        l1297 0FEE  
                      l1529 0FBE                        l1393 0FA3                        l1721 07D2  
                      l1713 07A2                        l1705 0772                        l1625 0663  
                      l1633 0673                        l1617 0653                        l1609 0643  
                      l1553 030A                        l1545 02A6                        l1537 026A  
                      l1385 0094                        l1377 007C                        l1481 042D  
                      l1465 0402                        l1449 03DB                        l1801 052D  
                      l1299 0FF5                        l1395 0F9F                        l1731 07E9  
                      l1723 07D6                        l1707 0777                        l1715 07A8  
                      l1651 06BC                        l1635 0683                        l1643 069C  
                      l1627 0668                        l1619 0659                        l1547 02CA  
                      l1539 027E                        l1571 0224                        l1563 0204  
                      l1387 009B                        l1379 0080                        l1491 0448  
                      l1483 0431                        l1467 0406                        l1459 03E1  
                      l1811 05A2                        l1803 054D                        l1397 0FA7  
                      l1733 07EB                        l1725 07DE                        l1717 07B5  
                      l1709 0785                        l1661 06DB                        l1653 06C4  
                      l1645 06A1                        l1637 068F                        l1629 0670  
                      l1549 02CE                        l1581 0239                        l1573 0228  
                      l1565 0219                        l1557 01F0                        l1741 0312  
                      l1389 00A1                        l1493 044D                        l1485 0437  
                      l1477 0411                        l1469 040A                        l1821 05F1  
                      l1813 05A9                        l1805 0566                        l1399 013C  
                      l1727 07DF                        l1719 07C3                        l1671 070D  
                      l1663 06ED                        l1655 06CC                        l1639 0693  
                      l1591 0259                        l1583 0242                        l1567 021A  
                      l1559 01FB                        l1751 033F                        l1743 0316  
                      l1495 047B                        l1487 043D                        l1823 05F9  
                      l1815 05AE                        l1807 0581                        l1729 07E5  
                      l1681 072E                        l1673 070E                        l1665 06F1  
                      l1657 06D4                        l1649 06AA                        l1593 025E  
                      l1569 0222                        l1761 035C                        l1753 0344  
                      l1745 0326                        l1497 0482                        l1489 0444  
                      l1825 05FF                        l1817 05CD                        l1809 0587  
                      l1691 0747                        l1683 0730                        l1675 071C  
                      l1667 06F2                        l1659 06D6                        l1595 061F  
                      l1579 0230                        l1771 0389                        l1763 036A  
                      l1755 0348                        l1747 0336                        l1739 030D  
                      l1499 0486                        l1827 0607                        l1819 05EC  
                      l1685 0739                        l1693 074D                        l1669 06FB  
                      l1677 0720                        l1597 0626                        l1589 0249  
                      l1781 03BC                        l1773 0393                        l1765 0373  
                      l1757 0351                        l1695 0751                        l1687 073D  
                      l1679 0726                        l1599 062C                        l1783 03BD  
                      l1775 039D                        l1767 037A                        l1759 0358  
                      l1791 04B0                        l1697 0752                        l1689 073E  
                      l1777 03B3                        l1769 0385                        l1793 04B5  
                      l1699 0756                        l1779 03B8                        l1795 04C1  
                      l1787 04A6                        l1797 04CD                        l1789 04AB  
                      l1799 04FD                        STR_1 0013                        STR_2 001D  
                      u1010 0FE3                        u1011 0FE2                        u1020 0FEE  
                      u1100 00C0                        u1021 0FED                        u1101 00BF  
                      u1030 0FF5                        u1031 0FF4                        u1040 0FFC  
                      u1120 00D1                        u1200 00A1                        u2000 05A9  
                      u1041 0FFB                        u1121 00D0                        u1201 00A0  
                      u2001 05A8                        u1115 00C1                        u1220 0065  
                      u1060 01C8                        u1300 00F0                        u1140 00E5  
                      u1221 0064                        u1061 01C7                        u1301 00EF  
                      u1141 00E4                        u1125 00CD                        u1070 01EC  
                      u1150 0072                        u1230 03D4                        u1215 004B  
                      u1071 01EB                        u1055 01A2                        u1135 00D9  
                      u1151 0071                        u1231 03D3                        u1320 0119  
                      u1080 00AE                        u1240 0406                        u1065 01C4  
                      u1321 0118                        u1401 02DD                        u1081 00AD  
                      u1241 0405                        u2017 0615                        u1410 0308  
                      u1402 02DE                        u1170 0084                        u1250 042C  
                      u1075 01E8                        u1315 00F8                        u2027 014C  
                      u1411 0307                        u1403 02E3                        u1171 0083  
                      u1251 042B                        u1340 0FDD                        u1404 02E4  
                      u1500 0259                        u1420 01FB                        u1180 008E  
                      u1260 0437                        u1341 0FDC                        u2037 015B  
                      u1405 02E9                        u1501 0258                        u1421 01FA  
                      u1181 008D                        u1165 0076                        u1261 0436  
                      u1406 02EA                        u1350 027E                        u1510 025E  
                      u1430 0212                        u1270 043D                        u2047 0038  
                      u1335 0121                        u1415 0304                        u1351 027D  
                      u1511 025D                        u1095 00B2                        u1271 043C  
                      u1255 0428                        u1600 06DB                        u1520 0630  
                      u1360 029A                        u1440 0228                        u1280 048F  
                      u2057 0059                        u1601 06DA                        u1521 062F  
                      u1361 0299                        u1441 0227                        u1185 008A  
                      u1281 048E                        u1530 0636                        u1370 02A6  
                      u1450 022F                        u1290 04A1                        u1531 0635  
                      u1371 02A5                        u1451 022E                        u1435 020D  
                      u1195 0095                        u1291 04A0                        u1540 063B  
                      u1541 063A                        u1381 02B5                        u1710 0751  
                      u1630 06F1                        u1550 065D                        u1390 02CE  
                      u1382 02B6                        u1470 0241                        u1711 0750  
                      u1631 06F0                        u1615 06DD                        u1551 065C  
                      u1391 02CD                        u1383 02BB                        u1471 0240  
                      u1800 07E9                        u1720 0756                        u1560 0663  
                      u1384 02BC                        u1480 0248                        u1801 07E8  
                      u1721 0755                        u1705 0740                        u1625 06E6  
                      u1561 0662                        u1385 02C1                        u1481 0247  
                      u1465 0231                        u1730 076A                        u1650 070D  
                      u1570 0668                        u1386 02C2                        u1810 0312  
                      u1731 0769                        u1651 070C                        u1571 0667  
                      u1811 0311                        u1740 0771                        u1660 0726  
                      u1580 0683                        u1900 038F                        u1820 0316  
                      u1741 0770                        u1661 0725                        u1645 06F4  
                      u1581 0682                        u1901 038E                        u1821 0315  
                      u1750 0777                        u1670 072E                        u1590 06A1  
                      u1910 0393                        u1830 0336                        u1751 0776  
                      u1671 072D                        u1655 0709                        u1591 06A0  
                      u1495 024B                        u1911 0392                        u1831 0335  
                      u1760 0789                        u1920 03A8                        u1761 0788  
                      u1770 0798                        u1690 073D                        u1930 03B8  
                      u1850 0357                        u1691 073C                        u1931 03B7  
                      u1851 0356                        u1780 07B5                        u1940 03BC  
                      u1781 07B4                        u1685 0732                        u1941 03BB  
                      u1925 03A3                        u1845 0349                        u1790 07D2  
                      u1870 0379                        u1950 0547                        u1791 07D1  
                      u1775 0793                        u1871 0378                        u1951 0545  
                      u1960 0548                        u1785 07B1                        u1865 036B  
                      u1890 0389                        u1970 0566                        u1795 07CE  
                      u1891 0388                        u1971 0565                        u1980 0581  
                      u1885 037E                        u1981 0580                        u1990 05A2  
                      u1991 05A1                 main@lvTank1 0056                 main@lvTank2 005A  
                      _main 04A6                        btemp 007E                main@adcTank1 0051  
              main@adcTank2 0053            __end_of_ADC_Read 006C                        start 0000  
           ___fldiv@new_exp 0032          Lcd_Print_Char@data 0074             __end_of_Lcd_Cmd 0041  
                _Lcd_SetBit 0FDE               ___fltol@sign1 0078                       ?_main 0070  
           __end_of___fldiv 07FC             __end_of___fltol 026A             __end_of___lwdiv 00EA  
           __end_of___lwmod 00A6     __size_of_Lcd_Set_Cursor 0052                       _TRISC 0087  
                     _TRISD 0088                       _TRISE 0089             __end_of_dpowers 0013  
                     pclath 000A   __size_of_Lcd_Print_String 0021         Lcd_Print_Char@i_144 0077  
                     status 0003                       wtemp0 007E             __end_of_sprintf 04A6  
   __size_of_Lcd_Print_Char 005F             __initialization 07FC                __end_of_main 061F  
                    ??_main 003A          __size_of_Lcd_Clear 000D          __size_of_Lcd_Start 0055  
                    _ADCON0 001F                      _ADCON1 009F                      _ADRESH 001E  
                    _ADRESL 009E                   ??_Lcd_Cmd 0071            __end_of___xxtofl 03C6  
                    ___flge 026A                   ??___fldiv 0028                   ??___fltol 0074  
                 ??___lwdiv 0074                   ??___lwmod 007B             ADC_Read@channel 0074  
               ?_Lcd_SetBit 0070                   ?_ADC_Read 0070                   ??_sprintf 0023  
             ??_PowerOnPump 0070             Lcd_Set_Cursor@a 0076             Lcd_Set_Cursor@b 0074  
           Lcd_Set_Cursor@y 0078             Lcd_Set_Cursor@z 0077                  ___flge@ff1 0070  
                ___flge@ff2 0074                ___xxtofl@arg 007A                ___xxtofl@exp 0079  
              ___xxtofl@val 0070     __end_of__initialization 07FC           __end_of_Lcd_Clear 0FBD  
                ___fltol@f1 0070           __end_of_Lcd_Start 0191              __pcstackCOMMON 0070  
            _Lcd_Set_Cursor 00EA                  ??_ADC_Read 0072            _Lcd_Print_String 0FBD  
       __size_of_Lcd_SetBit 0022              _Lcd_Print_Char 0191         __end_of_PowerOnPump 0FA7  
                __pmaintext 04A6                     ?___flge 0070          Lcd_SetBit@data_bit 0070  
    __end_of_Lcd_Set_Cursor 013C     __size_of_ADC_Initialize 0009                   ?___xxtofl 0070  
                __stringtab 0003             Lcd_Print_Char@i 0075                     _Lcd_Cmd 0027  
    __end_of_Lcd_Print_Char 01F0             __size_of___flge 00A2                     ___fldiv 061F  
                   ___fltol 01F0                     ___lwdiv 00A6                     ___lwmod 006C  
           ?_Lcd_Set_Cursor 0074               ?_PowerOffPump 0070                     __ptext1 03C6  
                   __ptext2 006C                     __ptext3 00A6                     __ptext4 030C  
                   __ptext5 01F0                     __ptext6 026A                     __ptext7 061F  
                   __ptext8 0FA3                     __ptext9 0F9F                     _dpowers 0009  
                ??___xxtofl 0074                     _sprintf 03C6        end_of_initialization 07FC  
               _PowerOnPump 0FA3             ?_Lcd_Print_Char 0070              main@strLvTank1 003D  
            main@strLvTank2 0047                ??_Lcd_SetBit 0070              ??_PowerOffPump 0070  
                 _PORTCbits 0007               ___xxtofl@sign 0078                 ___fldiv@grs 0034  
               ___fldiv@rem 002D           __size_of_ADC_Read 002B                  main@isFull 0055  
        __end_of_Lcd_SetBit 1000                   _Lcd_Clear 0FB0                   _Lcd_Start 013C  
            __end_of___flge 030C              _ADC_Initialize 0FA7    __end_of_Lcd_Print_String 0FDE  
       start_initialization 07FC           Lcd_Print_String@a 007C           Lcd_Print_String@i 007A  
                ?_Lcd_Clear 0070                    ??___flge 0078                  ?_Lcd_Start 0070  
    __end_of_ADC_Initialize 0FB0  Lcd_Print_Char@Lower_Nibble 0072                   ___fldiv@a 0020  
                 ___fldiv@b 0024                   ___latbits 0002               __pcstackBANK0 0020  
         __size_of___xxtofl 00BA        __end_of_PowerOffPump 0FA3                    ?_Lcd_Cmd 0070  
               sprintf@flag 0027                 sprintf@prec 0028            ___lwdiv@dividend 0072  
          ??_Lcd_Set_Cursor 0075                    ?___fldiv 0020                    ?___fltol 0070  
                  ?___lwdiv 0070                    ?___lwmod 0077             ?_ADC_Initialize 0070  
                 __pstrings 0003                    _ADC_Read 0041            ??_Lcd_Print_Char 0071  
          ___lwdiv@quotient 0074                    ?_sprintf 0020                ?_PowerOnPump 0070  
                  Lcd_Cmd@a 0073                    _GO_nDONE 00FA                 ??_Lcd_Clear 0074  
               ??_Lcd_Start 0074                 __stringbase 0008            __size_of_Lcd_Cmd 001A  
          __size_of___fldiv 01DD            __size_of___fltol 007A            __size_of___lwdiv 0044  
          __size_of___lwmod 003A          __end_of__stringtab 0009           ?_Lcd_Print_String 0070  
                sprintf@val 0029                    ___xxtofl 030C          ??_Lcd_Print_String 0079  
           ___lwdiv@divisor 0070             ___lwdiv@counter 0076       __size_of_PowerOffPump 0004  
                  __ptext10 013C                    __ptext11 00EA                    __ptext12 0FBD  
                  __ptext13 0191                    __ptext14 0FB0                    __ptext15 0027  
                  __ptext16 0FDE                    __ptext17 0041                    __ptext18 0FA7  
          __size_of_sprintf 00E0               __size_of_main 0179  Lcd_Print_Char@Upper_Nibble 0073  
              _PowerOffPump 0F9F                   sprintf@ap 0026                   sprintf@sp 002B  
          ___lwmod@dividend 0079        __size_of_PowerOnPump 0004            ??_ADC_Initialize 0070  
                 stringcode 0003          Lcd_Set_Cursor@temp 0079                    sprintf@c 002C  
                  sprintf@f 0020             ___lwmod@divisor 0077             ___lwmod@counter 007B  
                  stringdir 0003                    stringtab 0003  
